
exec:     file format elf32-avr

Sections:
Idx Name          Size      VMA       LMA       File off  Algn
  0 .data         00000048  00800100  000006c0  00000754  2**0
                  CONTENTS, ALLOC, LOAD, DATA
  1 .text         000006c0  00000000  00000000  00000094  2**1
                  CONTENTS, ALLOC, LOAD, READONLY, CODE
  2 .bss          00000006  00800148  00800148  0000079c  2**0
                  ALLOC
  3 .stab         00002250  00000000  00000000  0000079c  2**2
                  CONTENTS, READONLY, DEBUGGING
  4 .stabstr      0000122c  00000000  00000000  000029ec  2**0
                  CONTENTS, READONLY, DEBUGGING
  5 .comment      00000022  00000000  00000000  00003c18  2**0
                  CONTENTS, READONLY
Contents of section .data:
 800100 00000002 00000000 54000000 00005265  ........T.....Re
 800110 73756c74 2028756e 7369676e 65642069  sult (unsigned i
 800120 6e746567 6572293a 2025640a 00546865  nteger): %d..The
 800130 20676976 656e2070 6172616d 65746572   given parameter
 800140 20697320 25640a00                     is %d..        
Contents of section .text:
 0000 0c943400 0c945100 0c945100 0c945100  ..4...Q...Q...Q.
 0010 0c945100 0c945100 0c945100 0c945100  ..Q...Q...Q...Q.
 0020 0c945100 0c945100 0c945100 0c945100  ..Q...Q...Q...Q.
 0030 0c945100 0c945100 0c945100 0c945100  ..Q...Q...Q...Q.
 0040 0c945100 0c945100 0c945100 0c945100  ..Q...Q...Q...Q.
 0050 0c945100 0c945100 0c945100 0c945100  ..Q...Q...Q...Q.
 0060 0c945100 0c945100 11241fbe cfefd8e0  ..Q...Q..$......
 0070 debfcdbf 11e0a0e0 b1e0e0ec f6e002c0  ................
 0080 05900d92 a834b107 d9f711e0 a8e4b1e0  .....4..........
 0090 01c01d92 ae34b107 e1f70e94 73000c94  .....4......s...
 00a0 5e030c94 00000895 8a3039f4 9091c000  ^........09.....
 00b0 95fffccf 9de09093 c6009091 c00095ff  ................
 00c0 fccf8093 c60080e0 90e00895 9f938f93  ................
 00d0 8de291e0 9f938f93 0e949300 0f900f90  ................
 00e0 0f900f90 089580e0 91e09093 4b018093  ............K...
 00f0 4a011092 c50087e6 8093c400 88e18093  J...............
 0100 c10086e0 8093c200 0e945300 9f938f93  ..........S.....
 0110 8ee091e0 9f938f93 0e949300 0f900f90  ................
 0120 0f900f90 ffcfa2e0 b0e0e9e9 f0e00c94  ................
 0130 3703fe01 37966191 7191fa83 e983af01  7...7.a.q.......
 0140 80914a01 90914b01 0e94aa00 2296e2e0  ..J...K....."...
 0150 0c945303 ace0b0e0 e0ebf0e0 0c942703  ..S...........'.
 0160 7c016b01 8a01fc01 17821682 838181ff  |.k.............
 0170 c7c18824 8394912c 8c0e9d1e f7019381  ...$...,........
 0180 f60193fd 859193ff 81916f01 882309f4  ..........o..#..
 0190 b3c18532 39f493fd 859193ff 81916f01  ...29.........o.
 01a0 853229f4 b70190e0 0e949d02 e7cf712c  .2)...........q,
 01b0 312c20e0 2032a8f4 8b3261f0 28f48032  1, . 2...2a.(..2
 01c0 51f08332 71f40bc0 8d3239f0 803349f4  Q..2q....29..3I.
 01d0 216028c0 22602460 25c02860 23c02061  !`(."`$`%.(`#. a
 01e0 21c027fd 27c0382f 30533a30 78f426ff  !.'.'.8/0S:0x.&.
 01f0 06c0fae0 7f9e300d 1124732e 13c08ae0  ......0..$s.....
 0200 389e300d 1124332e 20620cc0 8e3221f4  8.0..$3. b...2!.
 0210 26fd72c1 206406c0 8c3611f4 206802c0  &.r. d...6.. h..
 0220 883641f4 f60193fd 859193ff 81916f01  .6A...........o.
 0230 8111c0cf 982f9554 933018f0 90529330  ...../.T.0...R.0
 0240 28f40c5f 1f4fffe3 f9830dc0 833631f0  (.._.O.......61.
 0250 833771f0 833509f0 5ec023c0 f8018081  .7q..5..^.#.....
 0260 89830e5f 1f4f6624 6394712c 540115c0  ..._.Of$c.q,T...
 0270 2801f2e0 4f0e511c f801a080 b18026ff  (...O.Q.......&.
 0280 03c0672d 70e002c0 6fef7fef c5012c87  ..g-p...o.....,.
 0290 0e949202 3c018201 2c856fe7 262e2222  ....<...,.o.&.""
 02a0 18c02801 f2e04f0e 511cf801 a080b180  ..(...O.Q.......
 02b0 26ff03c0 672d70e0 02c06fef 7fefc501  &...g-p...o.....
 02c0 2c870e94 87023c01 2c8550e8 252e222a  ,.....<.,.P.%."*
 02d0 820123fc 1cc006c0 b70180e2 90e00e94  ..#.............
 02e0 9d023a94 832d90e0 68167906 a8f30fc0  ..:..-..h.y.....
 02f0 f50127fc 859127fe 81915f01 b70190e0  ..'...'..._.....
 0300 0e949d02 31103a94 f1e06f1a 71086114  ....1.:...o.q.a.
 0310 710471f7 eec08436 11f08936 41f5f801  q.q....6...6A...
 0320 27ff07c0 60817181 82819381 0c5f1f4f  '...`.q......_.O
 0330 08c06081 71818827 77fd8095 982f0e5f  ..`.q..'w..../._
 0340 1f4f4fe6 642e6222 97ff09c0 90958095  .OO.d.b"........
 0350 70956195 7f4f8f4f 9f4ff0e8 6f2a2ae0  p.a..O.O.O..o**.
 0360 30e0a401 0e94c902 a82ea818 44c08537  0...........D..7
 0370 31f43fee b32eb222 2ae030e0 24c099ef  1.?...."*.0.$...
 0380 b92eb222 8f36b9f0 20f48835 09f0b4c0  ...".6.. ..5....
 0390 0dc08037 21f08837 09f0aec0 02c020e1  ...7!..7...... .
 03a0 b22ab4fe 0bc084e0 b82a08c0 24ff09c0  .*.......*..$...
 03b0 e6e0be2a 06c028e0 30e005c0 20e130e0  ...*..(.0... .0.
 03c0 02c020e1 32e0f801 b7fe07c0 60817181  .. .2.......`.q.
 03d0 82819381 0c5f1f4f 06c06081 718180e0  ....._.O..`.q...
 03e0 90e00e5f 1f4fa401 0e94c902 a82ea818  ..._.O..........
 03f0 8fe7682e 6b2066fe 0bc0362d 3e7fa714  ..h.k f...6->...
 0400 50f464fe 0ac062fc 08c0362d 3e7e05c0  P.d...b...6->~..
 0410 ba2c362d 03c0ba2c 01c0b72c 34ff0dc0  .,6-...,...,4...
 0420 fe01ea0d f11d8081 803311f4 397e09c0  .........3..9~..
 0430 32ff06c0 b394b394 04c0832f 867809f0  2........../.x..
 0440 b39433fd 14c030ff 0fc07a2c b31460f4  ..3...0...z,..`.
 0450 730c7b18 b32c08c0 b70180e2 90e03c87  s.{..,........<.
 0460 0e949d02 b3943c85 b314b0f3 04c0b314  ......<.........
 0470 10f43b18 01c0312c 34ff12c0 b70180e3  ..;...1,4.......
 0480 90e03c87 0e949d02 3c8532ff 1ec031ff  ..<.....<.2...1.
 0490 03c088e5 90e002c0 88e790e0 b7010cc0  ................
 04a0 832f8678 91f031fd 02c080e2 01c08be2  ./.x..1.........
 04b0 37fd8de2 b70190e0 0e949d02 06c0b701  7...............
 04c0 80e390e0 0e949d02 7a94a714 c0f3aa94  ........z.......
 04d0 f401ea0d f11db701 808190e0 0e949d02  ................
 04e0 a110f5cf 06c0b701 80e290e0 0e949d02  ................
 04f0 3a943110 f8cf42ce f7012681 378102c0  :.1...B...&.7...
 0500 2fef3fef c9012c96 e2e10c94 4303fc01  /.?...,.....C...
 0510 05906150 70400110 d8f78095 90958e0f  ..aPp@..........
 0520 9f1f0895 fc016150 70400190 0110d8f7  ......aPp@......
 0530 80959095 8e0f9f1f 08950f93 1f93cf93  ................
 0540 df938c01 eb018b81 81fd03c0 0fef1fef  ................
 0550 1ac082ff 0dc02e81 3f818c81 9d812817  ........?.....(.
 0560 390764f4 e881f981 0193f983 e88306c0  9.d.............
 0570 e885f985 802f0995 892b41f7 8e819f81  ...../...+A.....
 0580 01969f83 8e83c801 df91cf91 1f910f91  ................
 0590 0895fa01 aa272830 51f12031 81f1e894  .....'(0Q. 1....
 05a0 6f936e7f 6e5f7f4f 8f4f9f4f af4fb1e0  o.n.n_.O.O.O.O..
 05b0 3ed0b4e0 3cd0670f 781f891f 9a1fa11d  >...<.g.x.......
 05c0 680f791f 8a1f911d a11d6a0f 711d811d  h.y.......j.q...
 05d0 911da11d 20d009f4 68943f91 2ae0269f  .... ...h.?.*.&.
 05e0 11243019 305d3193 def6cf01 0895462f  .$0.0]1.......F/
 05f0 4770405d 4193b3e0 0fd0c9f7 f6cf462f  Gp@]A.........F/
 0600 4f70405d 4a3318f0 495d31fd 40524193  Op@]J3..I]1.@RA.
 0610 02d0a9f7 eacfb4e0 a6959795 87957795  ..............w.
 0620 6795ba95 c9f70097 61057105 08959b01  g.......a.q.....
 0630 ac010a2e 06945795 47953795 2795ba95  ......W.G.7.'...
 0640 c9f7620f 731f841f 951fa01d 08952f92  ..b.s........./.
 0650 3f924f92 5f926f92 7f928f92 9f92af92  ?.O._.o.........
 0660 bf92cf92 df92ef92 ff920f93 1f93cf93  ................
 0670 df93cdb7 deb7ca1b db0b0fb6 f894debf  ................
 0680 0fbecdbf 09942a88 39884888 5f846e84  ......*.9.H._.n.
 0690 7d848c84 9b84aa84 b984c884 df80ee80  }...............
 06a0 fd800c81 1b81aa81 b981ce0f d11d0fb6  ................
 06b0 f894debf 0fbecdbf ed010895 f894ffcf  ................
Contents of section .stab:
 0000 01000000 0000db02 2c120000 01000000  ........,.......
 0010 64000000 a2000000 11000000 80000000  d...............
 0020 00000000 1b000000 24003300 00000000  ........$.3.....
 0030 28000000 84000000 00000000 00000000  (...............
 0040 44003400 00000000 00000000 44003500  D.4.........D.5.
 0050 04000000 00000000 44003600 08000000  ........D.6.....
 0060 00000000 44003700 0c000000 00000000  ....D.7.........
 0070 44003800 10000000 00000000 44003900  D.8.........D.9.
 0080 14000000 00000000 44003a00 18000000  ........D.:.....
 0090 00000000 44003b00 1c000000 00000000  ....D.;.........
 00a0 44003c00 20000000 00000000 44003d00  D.<. .......D.=.
 00b0 24000000 00000000 44003e00 28000000  $.......D.>.(...
 00c0 00000000 44003f00 2c000000 00000000  ....D.?.,.......
 00d0 44004000 30000000 00000000 44004100  D.@.0.......D.A.
 00e0 34000000 00000000 44004200 38000000  4.......D.B.8...
 00f0 00000000 44004300 3c000000 00000000  ....D.C.<.......
 0100 44004400 40000000 00000000 44004500  D.D.@.......D.E.
 0110 44000000 00000000 44004600 48000000  D.......D.F.H...
 0120 00000000 44004700 4c000000 00000000  ....D.G.L.......
 0130 44004800 50000000 00000000 44004900  D.H.P.......D.I.
 0140 54000000 00000000 44004a00 58000000  T.......D.J.X...
 0150 00000000 44004b00 5c000000 00000000  ....D.K.\.......
 0160 44004c00 60000000 00000000 44004d00  D.L.`.......D.M.
 0170 64000000 00000000 44004e00 68000000  d.......D.N.h...
 0180 00000000 44004f00 68000000 00000000  ....D.O.h.......
 0190 44005000 68000000 00000000 44005100  D.P.h.......D.Q.
 01a0 68000000 00000000 44005200 68000000  h.......D.R.h...
 01b0 00000000 44005300 68000000 00000000  ....D.S.h.......
 01c0 44005400 68000000 00000000 44005500  D.T.h.......D.U.
 01d0 68000000 00000000 44005600 68000000  h.......D.V.h...
 01e0 00000000 44005700 68000000 00000000  ....D.W.h.......
 01f0 44005800 68000000 00000000 44005900  D.X.h.......D.Y.
 0200 68000000 00000000 44005a00 68000000  h.......D.Z.h...
 0210 00000000 44005b00 68000000 00000000  ....D.[.h.......
 0220 44005c00 68000000 00000000 44005d00  D.\.h.......D.].
 0230 68000000 00000000 44005e00 68000000  h.......D.^.h...
 0240 00000000 44005f00 68000000 00000000  ....D._.h.......
 0250 44006000 68000000 00000000 44006100  D.`.h.......D.a.
 0260 68000000 00000000 44006200 68000000  h.......D.b.h...
 0270 00000000 44006300 68000000 00000000  ....D.c.h.......
 0280 44006400 68000000 00000000 44006500  D.d.h.......D.e.
 0290 68000000 00000000 44006600 68000000  h.......D.f.h...
 02a0 00000000 44006700 68000000 00000000  ....D.g.h.......
 02b0 44006800 68000000 00000000 44006900  D.h.h.......D.i.
 02c0 68000000 00000000 44006a00 68000000  h.......D.j.h...
 02d0 00000000 44006b00 68000000 00000000  ....D.k.h.......
 02e0 44006c00 68000000 00000000 44006d00  D.l.h.......D.m.
 02f0 68000000 00000000 44006e00 68000000  h.......D.n.h...
 0300 00000000 44006f00 68000000 00000000  ....D.o.h.......
 0310 44007000 68000000 00000000 44007100  D.p.h.......D.q.
 0320 68000000 00000000 44007200 68000000  h.......D.r.h...
 0330 00000000 44007300 68000000 00000000  ....D.s.h.......
 0340 44007400 68000000 00000000 44007500  D.t.h.......D.u.
 0350 68000000 00000000 44007600 68000000  h.......D.v.h...
 0360 00000000 44007700 68000000 00000000  ....D.w.h.......
 0370 44007800 68000000 00000000 44007900  D.x.h.......D.y.
 0380 68000000 00000000 44007a00 68000000  h.......D.z.h...
 0390 00000000 44007b00 68000000 00000000  ....D.{.h.......
 03a0 44007c00 68000000 00000000 44007d00  D.|.h.......D.}.
 03b0 68000000 00000000 44007e00 68000000  h.......D.~.h...
 03c0 00000000 44007f00 68000000 00000000  ....D...h.......
 03d0 44008000 68000000 00000000 44008100  D...h.......D...
 03e0 68000000 00000000 44008200 68000000  h.......D...h...
 03f0 00000000 44008300 68000000 00000000  ....D...h.......
 0400 44008400 68000000 00000000 44008500  D...h.......D...
 0410 68000000 00000000 44008600 68000000  h.......D...h...
 0420 00000000 44008700 68000000 00000000  ....D...h.......
 0430 44008800 68000000 00000000 44008900  D...h.......D...
 0440 68000000 00000000 44008a00 68000000  h.......D...h...
 0450 00000000 44008b00 68000000 00000000  ....D...h.......
 0460 44008c00 68000000 00000000 44008d00  D...h.......D...
 0470 68000000 00000000 44008e00 68000000  h.......D...h...
 0480 00000000 44008f00 68000000 00000000  ....D...h.......
 0490 44009000 68000000 00000000 44009100  D...h.......D...
 04a0 68000000 00000000 44009200 68000000  h.......D...h...
 04b0 00000000 44009300 68000000 00000000  ....D...h.......
 04c0 44009400 68000000 00000000 44009500  D...h.......D...
 04d0 68000000 00000000 44009600 68000000  h.......D...h...
 04e0 00000000 44009700 68000000 00000000  ....D...h.......
 04f0 44009800 68000000 00000000 44009900  D...h.......D...
 0500 68000000 00000000 44009a00 68000000  h.......D...h...
 0510 00000000 44009b00 68000000 00000000  ....D...h.......
 0520 44009c00 68000000 00000000 44009d00  D...h.......D...
 0530 68000000 00000000 44009e00 68000000  h.......D...h...
 0540 00000000 44009f00 68000000 00000000  ....D...h.......
 0550 4400a000 68000000 00000000 4400a100  D...h.......D...
 0560 68000000 00000000 4400a200 68000000  h.......D...h...
 0570 00000000 4400a300 68000000 00000000  ....D...h.......
 0580 4400a400 68000000 00000000 4400a500  D...h.......D...
 0590 68000000 00000000 4400a600 68000000  h.......D...h...
 05a0 00000000 4400a700 68000000 00000000  ....D...h.......
 05b0 4400a800 68000000 00000000 4400a900  D...h.......D...
 05c0 68000000 00000000 4400aa00 68000000  h.......D...h...
 05d0 00000000 4400ab00 68000000 00000000  ....D...h.......
 05e0 4400ac00 68000000 00000000 4400ad00  D...h.......D...
 05f0 68000000 00000000 4400ae00 68000000  h.......D...h...
 0600 00000000 4400af00 68000000 00000000  ....D...h.......
 0610 4400b000 68000000 00000000 4400b100  D...h.......D...
 0620 68000000 00000000 4400b200 68000000  h.......D...h...
 0630 00000000 4400b300 68000000 00000000  ....D...h.......
 0640 24000000 68000000 41000000 2400c000  $...h...A...$...
 0650 a2000000 00000000 4400c300 00000000  ........D.......
 0660 00000000 24000000 04000000 00000000  ....$...........
 0670 4400d800 68000000 00000000 4400d900  D...h.......D...
 0680 6a000000 00000000 4400da00 6c000000  j.......D...l...
 0690 00000000 4400dc00 6e000000 00000000  ....D...n.......
 06a0 4400dd00 70000000 00000000 4400df00  D...p.......D...
 06b0 72000000 00000000 44002401 9a000000  r.......D.$.....
 06c0 00000000 44002501 9e000000 54000000  ....D.%.....T...
 06d0 64000000 a6000000 00000000 44000900  d...........D...
 06e0 a6000000 5e000000 64000200 a8000000  ....^...d.......
 06f0 96000000 64000200 a8000000 a5000000  ....d...........
 0700 3c000000 00000000 b4000000 80000000  <...............
 0710 00000000 d4000000 80000000 00000000  ................
 0720 ee000000 80000000 00000000 25010000  ............%...
 0730 80000000 00000000 4b010000 80000000  ........K.......
 0740 00000000 80010000 80000000 00000000  ................
 0750 d1010000 80000000 00000000 16020000  ................
 0760 80000000 00000000 3c020000 80000000  ........<.......
 0770 00000000 68020000 80000000 00000000  ....h...........
 0780 92020000 80000000 00000000 bb020000  ................
 0790 80000000 00000000 d5020000 80000000  ................
 07a0 00000000 f0020000 80000000 00000000  ................
 07b0 10030000 80000000 00000000 24030000  ............$...
 07c0 82000000 00000000 59030000 82000000  ........Y.......
 07d0 00000000 94030000 82000000 250f0000  ............%...
 07e0 cb030000 82000000 00000000 f3030000  ................
 07f0 82000000 33b80000 28040000 80007900  ....3...(.....y.
 0800 00000000 3d040000 80007a00 00000000  ....=.....z.....
 0810 53040000 80007b00 00000000 68040000  S.....{.....h...
 0820 80007c00 00000000 7e040000 80007d00  ..|.....~.....}.
 0830 00000000 93040000 80007e00 00000000  ..........~.....
 0840 a9040000 80008000 00000000 be040000  ................
 0850 80008100 00000000 d4040000 80008e00  ................
 0860 00000000 ea040000 80009300 00000000  ................
 0870 02050000 80009f00 00000000 1d050000  ................
 0880 8000a400 00000000 39050000 8000a900  ........9.......
 0890 00000000 55050000 8000ae00 00000000  ....U...........
 08a0 72050000 8000b300 00000000 8e050000  r...............
 08b0 8000b800 00000000 ab050000 8000c000  ................
 08c0 00000000 c7050000 8000c700 00000000  ................
 08d0 e4050000 8000d500 00000000 fe050000  ................
 08e0 8000da00 00000000 19060000 8000df00  ................
 08f0 00000000 34060000 8000e400 00000000  ....4...........
 0900 50060000 8000e900 00000000 6b060000  P...........k...
 0910 8000ee00 00000000 87060000 8000f600  ................
 0920 00000000 a2060000 8000fd00 00000000  ................
 0930 be060000 80001101 00000000 d5060000  ................
 0940 80001601 00000000 00000000 a2000000  ................
 0950 00000000 00000000 a2000000 00000000  ................
 0960 ed060000 80004d00 00000000 07070000  ......M.........
 0970 80005100 00000000 00000000 a2000000  ..Q.............
 0980 00000000 00000000 a2000000 00000000  ................
 0990 22070000 82000000 68130000 59070000  ".......h...Y...
 09a0 8000f400 00000000 00000000 a2000000  ................
 09b0 00000000 00000000 a2000000 00000000  ................
 09c0 a7070000 82000000 2d2b0000 db070000  ........-+......
 09d0 82000000 890e0000 03080000 80002800  ..............(.
 09e0 00000000 27080000 80006600 00000000  ....'.....f.....
 09f0 00000000 a2000000 00000000 3c080000  ............<...
 0a00 82000000 d8040000 64080000 8000d500  ........d.......
 0a10 00000000 00000000 a2000000 00000000  ................
 0a20 78080000 80000000 00000000 00000000  x...............
 0a30 a2000000 00000000 3b090000 2400eb00  ........;...$...
 0a40 a8000000 57090000 4000eb00 18000000  ....W...@.......
 0a50 62090000 4000eb00 16000000 00000000  b...@...........
 0a60 2e000000 a8000000 00000000 4400eb00  ............D...
 0a70 00000000 00000000 4400ee00 00000000  ........D.......
 0a80 00000000 4400a000 04000000 00000000  ....D...........
 0a90 4400a300 0c000000 00000000 4400a000  D...........D...
 0aa0 12000000 00000000 4400a300 1a000000  ........D.......
 0ab0 00000000 4400f300 1e000000 00000000  ....D...........
 0ac0 24000000 24000000 00000000 4e000000  $...$.......N...
 0ad0 cc000000 78090000 24005400 e6000000  ....x...$.T.....
 0ae0 00000000 2e000000 e6000000 00000000  ................
 0af0 44005400 00000000 00000000 44005900  D.T.........D.Y.
 0b00 00000000 00000000 44008a00 0c000000  ........D.......
 0b10 00000000 44008b00 10000000 00000000  ....D...........
 0b20 44008e00 16000000 00000000 44009100  D...........D...
 0b30 1c000000 00000000 44005f00 22000000  ........D._."...
 0b40 00000000 44006200 26000000 00000000  ....D.b.&.......
 0b50 24000000 40000000 00000000 4e000000  $...@.......N...
 0b60 26010000 84090000 24007400 cc000000  &.......$.t.....
 0b70 00000000 2e000000 cc000000 00000000  ................
 0b80 44007500 00000000 00000000 44007600  D.u.........D.v.
 0b90 00000000 00000000 24000000 1a000000  ........$.......
 0ba0 00000000 4e000000 e6000000 9a090000  ....N...........
 0bb0 26004400 00018000 00000000 64000000  &.D.........d...
 0bc0 e6000000 aa090000 64000200 e6000000  ........d.......
 0bd0 db090000 64000200 e6000000 a5000000  ....d...........
 0be0 3c000000 00000000 b4000000 80000000  <...............
 0bf0 00000000 d4000000 80000000 00000000  ................
 0c00 ee000000 80000000 00000000 25010000  ............%...
 0c10 80000000 00000000 4b010000 80000000  ........K.......
 0c20 00000000 80010000 80000000 00000000  ................
 0c30 d1010000 80000000 00000000 16020000  ................
 0c40 80000000 00000000 3c020000 80000000  ........<.......
 0c50 00000000 68020000 80000000 00000000  ....h...........
 0c60 92020000 80000000 00000000 bb020000  ................
 0c70 80000000 00000000 d5020000 80000000  ................
 0c80 00000000 f0020000 80000000 00000000  ................
 0c90 10030000 80000000 00000000 f5090000  ................
 0ca0 82000000 33b80000 0f0a0000 80007900  ....3.........y.
 0cb0 00000000 240a0000 80007a00 00000000  ....$.....z.....
 0cc0 3a0a0000 80007b00 00000000 4f0a0000  :.....{.....O...
 0cd0 80007c00 00000000 650a0000 80007d00  ..|.....e.....}.
 0ce0 00000000 7a0a0000 80007e00 00000000  ....z.....~.....
 0cf0 900a0000 80008000 00000000 a50a0000  ................
 0d00 80008100 00000000 bb0a0000 80008e00  ................
 0d10 00000000 d10a0000 80009300 00000000  ................
 0d20 e90a0000 80009f00 00000000 040b0000  ................
 0d30 8000a400 00000000 200b0000 8000a900  ........ .......
 0d40 00000000 3c0b0000 8000ae00 00000000  ....<...........
 0d50 590b0000 8000b300 00000000 750b0000  Y...........u...
 0d60 8000b800 00000000 920b0000 8000c000  ................
 0d70 00000000 ae0b0000 8000c700 00000000  ................
 0d80 cb0b0000 8000d500 00000000 e50b0000  ................
 0d90 8000da00 00000000 000c0000 8000df00  ................
 0da0 00000000 1b0c0000 8000e400 00000000  ................
 0db0 370c0000 8000e900 00000000 520c0000  7...........R...
 0dc0 8000ee00 00000000 6e0c0000 8000f600  ........n.......
 0dd0 00000000 890c0000 8000fd00 00000000  ................
 0de0 a50c0000 80001101 00000000 bc0c0000  ................
 0df0 80001601 00000000 00000000 a2000000  ................
 0e00 00000000 d40c0000 82000000 2d2b0000  ............-+..
 0e10 ed0c0000 82000000 250f0000 090d0000  ........%.......
 0e20 80004d00 00000000 230d0000 80005100  ..M.....#.....Q.
 0e30 00000000 00000000 a2000000 00000000  ................
 0e40 3e0d0000 82000000 890e0000 660d0000  >...........f...
 0e50 80002800 00000000 8a0d0000 80006600  ..(...........f.
 0e60 00000000 00000000 a2000000 00000000  ................
 0e70 9f0d0000 82000000 d8040000 c70d0000  ................
 0e80 8000d500 00000000 00000000 a2000000  ................
 0e90 00000000 db0d0000 80000000 00000000  ................
 0ea0 00000000 a2000000 00000000 9e0e0000  ................
 0eb0 20002500 00000000 00000000 64000000   .%.........d...
 0ec0 e6000000 aa090000 64000200 e6000000  ........d.......
 0ed0 da0e0000 64000200 e6000000 a5000000  ....d...........
 0ee0 3c000000 00000000 b4000000 80000000  <...............
 0ef0 00000000 d4000000 80000000 00000000  ................
 0f00 ee000000 80000000 00000000 25010000  ............%...
 0f10 80000000 00000000 4b010000 80000000  ........K.......
 0f20 00000000 80010000 80000000 00000000  ................
 0f30 d1010000 80000000 00000000 16020000  ................
 0f40 80000000 00000000 3c020000 80000000  ........<.......
 0f50 00000000 68020000 80000000 00000000  ....h...........
 0f60 92020000 80000000 00000000 bb020000  ................
 0f70 80000000 00000000 d5020000 80000000  ................
 0f80 00000000 f0020000 80000000 00000000  ................
 0f90 10030000 80000000 00000000 3e0d0000  ............>...
 0fa0 c2000000 890e0000 d40c0000 c2000000  ................
 0fb0 2d2b0000 ed0c0000 c2000000 250f0000  -+..........%...
 0fc0 f5090000 c2000000 33b80000 9f0d0000  ........3.......
 0fd0 c2000000 d8040000 f70e0000 24002600  ............$.&.
 0fe0 26010000 050f0000 a0002600 07000000  &.........&.....
 0ff0 00000000 2e000000 26010000 00000000  ........&.......
 1000 44002700 00000000 00000000 44002b00  D.'.........D.+.
 1010 14000000 00000000 44002c00 18000000  ........D.,.....
 1020 00000000 44003000 26000000 200f0000  ....D.0.&... ...
 1030 80002800 01000000 290f0000 40002600  ..(.....)...@.&.
 1040 16000000 00000000 c0000000 00000000  ................
 1050 00000000 e0000000 2e000000 00000000  ................
 1060 24000000 2e000000 00000000 4e000000  $...........N...
 1070 54010000 00000000 64000000 e6000000  T.......d.......
 1080 aa090000 64000200 e6000000 350f0000  ....d.......5...
 1090 64000200 e6000000 a5000000 3c000000  d...........<...
 10a0 00000000 b4000000 80000000 00000000  ................
 10b0 d4000000 80000000 00000000 ee000000  ................
 10c0 80000000 00000000 25010000 80000000  ........%.......
 10d0 00000000 4b010000 80000000 00000000  ....K...........
 10e0 80010000 80000000 00000000 d1010000  ................
 10f0 80000000 00000000 16020000 80000000  ................
 1100 00000000 3c020000 80000000 00000000  ....<...........
 1110 68020000 80000000 00000000 92020000  h...............
 1120 80000000 00000000 bb020000 80000000  ................
 1130 00000000 d5020000 80000000 00000000  ................
 1140 f0020000 80000000 00000000 10030000  ................
 1150 80000000 00000000 540f0000 82000000  ........T.......
 1160 00000000 ed0c0000 c2000000 250f0000  ............%...
 1170 f5090000 c2000000 33b80000 9f0d0000  ........3.......
 1180 c2000000 d8040000 00000000 a2000000  ................
 1190 00000000 3e0d0000 c2000000 890e0000  ....>...........
 11a0 d40c0000 c2000000 2d2b0000 740f0000  ........-+..t...
 11b0 82000000 3e240000 9f0d0000 82000000  ....>$..........
 11c0 2f050000 8e0f0000 80004501 00000000  /.........E.....
 11d0 00000000 a2000000 00000000 a30f0000  ................
 11e0 80004700 00000000 da0f0000 80004d00  ..G...........M.
 11f0 00000000 12100000 80005000 00000000  ..........P.....
 1200 00000000 a2000000 00000000 3b100000  ............;...
 1210 82000000 00000000 9f0d0000 82000000  ................
 1220 09060000 5b100000 80009600 00000000  ....[...........
 1230 00000000 a2000000 00000000 00000000  ................
 1240 a2000000 00000000 73100000 24001e01  ........s...$...
 1250 54010000 83100000 40001e01 0e000000  T.......@.......
 1260 99100000 40001e01 0c000000 b4100000  ....@...........
 1270 40001e01 10000000 00000000 2e000000  @...............
 1280 54010000 00000000 44001f01 00000000  T.......D.......
 1290 00000000 44002601 12000000 00000000  ....D.&.........
 12a0 44002801 18000000 00000000 44003302  D.(.........D.3.
 12b0 1e000000 00000000 44002e01 28000000  ........D...(...
 12c0 00000000 44002f01 38000000 00000000  ....D./.8.......
 12d0 44003001 3e000000 00000000 44003101  D.0.>.......D.1.
 12e0 42000000 00000000 44003201 4c000000  B.......D.2.L...
 12f0 00000000 44003401 50000000 00000000  ....D.4.P.......
 1300 44003501 58000000 00000000 44003201  D.5.X.......D.2.
 1310 5a000000 00000000 44003c01 60000000  Z.......D.<.`...
 1320 00000000 44003d01 64000000 00000000  ....D.=.d.......
 1330 44003f01 7c000000 00000000 44004001  D.?.|.......D.@.
 1340 7e000000 00000000 44004201 80000000  ~.......D.B.....
 1350 00000000 44004501 82000000 00000000  ....D.E.........
 1360 44004601 84000000 00000000 44004801  D.F.........D.H.
 1370 86000000 00000000 44004901 88000000  ........D.I.....
 1380 00000000 44004b01 8a000000 00000000  ....D.K.........
 1390 44004c01 8c000000 00000000 44005001  D.L.........D.P.
 13a0 8e000000 00000000 44005101 92000000  ........D.Q.....
 13b0 00000000 44005301 9a000000 00000000  ....D.S.........
 13c0 44005401 9e000000 00000000 44005501  D.T.........D.U.
 13d0 a8000000 00000000 44005701 aa000000  ........D.W.....
 13e0 00000000 44005801 b4000000 00000000  ....D.X.........
 13f0 44005901 b6000000 00000000 44005b01  D.Y.........D.[.
 1400 b8000000 00000000 44005c01 bc000000  ........D.\.....
 1410 00000000 44005e01 c0000000 00000000  ....D.^.........
 1420 44005f01 c2000000 00000000 44006101  D._.........D.a.
 1430 c4000000 00000000 44006201 c8000000  ........D.b.....
 1440 00000000 44006301 ca000000 00000000  ....D.c.........
 1450 44006501 cc000000 00000000 44006a01  D.e.........D.j.
 1460 d0000000 00000000 44002002 e0000000  ........D. .....
 1470 00000000 44002002 e8000000 00000000  ....D. .........
 1480 44002102 ee000000 00000000 44002202  D.!.........D.".
 1490 f2000000 00000000 44002c02 f8000000  ........D.,.....
 14a0 00000000 44002f02 08010000 00000000  ....D./.........
 14b0 44003402 12010000 00000000 44003302  D.4.........D.3.
 14c0 18010000 00000000 44003802 1c010000  ........D.8.....
 14d0 00000000 44003902 2a010000 00000000  ....D.9.*.......
 14e0 44003902 2e010000 00000000 44003902  D.9.........D.9.
 14f0 34010000 00000000 44003902 38010000  4.......D.9.8...
 1500 00000000 44003802 42010000 00000000  ....D.8.B.......
 1510 44003b02 46010000 00000000 44003c02  D.;.F.......D.<.
 1520 4c010000 00000000 44003f02 4e010000  L.......D.?.N...
 1530 00000000 44004002 5c010000 00000000  ....D.@.\.......
 1540 44004002 60010000 00000000 44004002  D.@.`.......D.@.
 1550 66010000 00000000 44004002 6a010000  f.......D.@.j...
 1560 00000000 44004102 74010000 00000000  ....D.A.t.......
 1570 44003f02 7c010000 00000000 44004402  D.?.|.......D.D.
 1580 7e010000 00000000 44004602 84010000  ~.......D.F.....
 1590 00000000 44004702 8e010000 00000000  ....D.G.........
 15a0 44004502 90010000 00000000 44004b02  D.E.........D.K.
 15b0 9c010000 00000000 44004c02 b0010000  ........D.L.....
 15c0 00000000 44004c02 b2010000 00000000  ....D.L.........
 15d0 44004d02 b4010000 00000000 44004a02  D.M.........D.J.
 15e0 ba010000 00000000 44005302 c2010000  ........D.S.....
 15f0 00000000 44005302 c6010000 00000000  ....D.S.........
 1600 44005402 ca010000 00000000 44005402  D.T.........D.T.
 1610 d0010000 00000000 44005402 de010000  ........D.T.....
 1620 00000000 44005502 ee010000 00000000  ....D.U.........
 1630 44005602 f4010000 00000000 44005702  D.V.........D.W.
 1640 f8010000 00000000 44005802 06020000  ........D.X.....
 1650 00000000 44005a02 0a020000 00000000  ....D.Z.........
 1660 44005302 18020000 00000000 44005f02  D.S.........D._.
 1670 1a020000 00000000 44006002 1e020000  ........D.`.....
 1680 00000000 44006102 24020000 00000000  ....D.a.$.......
 1690 44006202 28020000 00000000 44006502  D.b.(.......D.e.
 16a0 2a020000 00000000 44006702 30020000  *.......D.g.0...
 16b0 00000000 44006c02 4a020000 00000000  ....D.l.J.......
 16c0 44006f02 4e020000 00000000 44007002  D.o.N.......D.p.
 16d0 52020000 00000000 44007402 58020000  R.......D.t.X...
 16e0 00000000 44007502 5c020000 00000000  ....D.u.\.......
 16f0 44006902 62020000 00000000 44007102  D.i.b.......D.q.
 1700 68020000 00000000 44007602 6e020000  h.......D.v.n...
 1710 00000000 44007802 72020000 00000000  ....D.x.r.......
 1720 44007902 80020000 00000000 44007802  D.y.........D.x.
 1730 86020000 00000000 44007a02 8e020000  ........D.z.....
 1740 00000000 44007802 92020000 00000000  ....D.x.........
 1750 44007c02 9c020000 00000000 44008802  D.|.........D...
 1760 a2020000 00000000 44008902 a6020000  ........D.......
 1770 00000000 44008a02 aa020000 00000000  ....D...........
 1780 44008c02 ae020000 00000000 44008c02  D...........D...
 1790 b2020000 00000000 44008d02 b6020000  ........D.......
 17a0 00000000 44008802 bc020000 00000000  ....D...........
 17b0 44008a02 c2020000 00000000 44008c02  D...........D...
 17c0 c6020000 00000000 44009002 c8020000  ........D.......
 17d0 00000000 44009102 cc020000 00000000  ....D...........
 17e0 44009202 d8020000 00000000 44009502  D...........D...
 17f0 dc020000 00000000 44009602 e0020000  ........D.......
 1800 00000000 44009802 e6020000 00000000  ....D...........
 1810 44009902 ec020000 00000000 44009c02  D...........D...
 1820 ee020000 00000000 44009d02 f2020000  ........D.......
 1830 00000000 4400a002 f6020000 00000000  ....D...........
 1840 44009f02 f8020000 00000000 4400a002  D...........D...
 1850 fc020000 00000000 4400a502 04030000  ........D.......
 1860 00000000 4400a602 10030000 00000000  ....D...........
 1870 4400a402 14030000 00000000 4400aa02  D...........D...
 1880 1a030000 00000000 4400aa02 1e030000  ........D.......
 1890 00000000 4400aa02 22030000 00000000  ....D...".......
 18a0 4400ac02 24030000 00000000 4400ad02  D...$.......D...
 18b0 28030000 00000000 4400ae02 34030000  (.......D...4...
 18c0 00000000 4400af02 3a030000 00000000  ....D...:.......
 18d0 4400af02 48030000 00000000 4400b002  D...H.......D...
 18e0 4c030000 00000000 4400b202 52030000  L.......D...R...
 18f0 00000000 4400b102 56030000 00000000  ....D...V.......
 1900 4400b202 5a030000 00000000 4400b302  D...Z.......D...
 1910 5c030000 00000000 4400b402 60030000  \.......D...`...
 1920 00000000 4400b802 6a030000 00000000  ....D...j.......
 1930 4400b902 74030000 00000000 4400b702  D...t.......D...
 1940 76030000 00000000 4400bd02 7a030000  v.......D...z...
 1950 00000000 4400be02 8c030000 00000000  ....D...........
 1960 4400c402 92030000 00000000 4400c502  D...........D...
 1970 9c030000 00000000 4400c302 9e030000  ........D.......
 1980 00000000 4400ca02 a4030000 00000000  ....D...........
 1990 44002901 ac030000 00000000 4400cb02  D.).........D...
 19a0 b0030000 be100000 40002201 03000000  ........@.".....
 19b0 cc100000 40002301 07000000 d9100000  ....@.#.........
 19c0 80002401 01000000 00000000 c0000000  ..$.............
 19d0 00000000 0c110000 40002902 0a000000  ........@.).....
 19e0 18110000 40002a02 06000000 00000000  ....@.*.........
 19f0 c0000000 f8000000 00000000 e0000000  ................
 1a00 c2010000 24110000 40005402 16000000  ....$...@.T.....
 1a10 00000000 c0000000 ca010000 00000000  ................
 1a20 e0000000 18020000 2d110000 40005d02  ........-...@.].
 1a30 12000000 00000000 c0000000 1a020000  ................
 1a40 00000000 e0000000 a2020000 39110000  ............9...
 1a50 40008502 0b000000 00000000 c0000000  @...............
 1a60 a2020000 45110000 4000b102 18000000  ....E...@.......
 1a70 00000000 c0000000 52030000 00000000  ........R.......
 1a80 e0000000 6a030000 00000000 e0000000  ....j...........
 1a90 92030000 00000000 e0000000 ba030000  ................
 1aa0 00000000 24000000 ba030000 00000000  ....$...........
 1ab0 4e000000 0e050000 00000000 64000000  N...........d...
 1ac0 e6000000 4f110000 64000000 e6000000  ....O...d.......
 1ad0 5f110000 84000000 0e050000 00000000  _...............
 1ae0 44003f00 0e050000 00000000 44004100  D.?.........D.A.
 1af0 10050000 00000000 44004200 12050000  ........D.B.....
 1b00 00000000 44004300 14050000 00000000  ....D.C.........
 1b10 44004400 16050000 00000000 44004500  D.D.........D.E.
 1b20 18050000 00000000 44004800 1a050000  ........D.H.....
 1b30 00000000 44004900 1c050000 00000000  ....D.I.........
 1b40 44004a00 1e050000 00000000 44004b00  D.J.........D.K.
 1b50 20050000 00000000 44004c00 22050000   .......D.L."...
 1b60 82110000 64000000 e6000000 92110000  ....d...........
 1b70 84000000 24050000 00000000 44003a00  ....$.......D.:.
 1b80 24050000 00000000 44003c00 26050000  $.......D.<.&...
 1b90 00000000 44003d00 28050000 00000000  ....D.=.(.......
 1ba0 44003e00 2a050000 00000000 44003f00  D.>.*.......D.?.
 1bb0 2c050000 00000000 44004000 2e050000  ,.......D.@.....
 1bc0 00000000 44004300 30050000 00000000  ....D.C.0.......
 1bd0 44004400 32050000 00000000 44004500  D.D.2.......D.E.
 1be0 34050000 00000000 44004600 36050000  4.......D.F.6...
 1bf0 00000000 44004700 38050000 aa090000  ....D.G.8.......
 1c00 64000200 e6000000 b1110000 64000200  d...........d...
 1c10 e6000000 a5000000 3c000000 00000000  ........<.......
 1c20 b4000000 80000000 00000000 d4000000  ................
 1c30 80000000 00000000 ee000000 80000000  ................
 1c40 00000000 25010000 80000000 00000000  ....%...........
 1c50 4b010000 80000000 00000000 80010000  K...............
 1c60 80000000 00000000 d1010000 80000000  ................
 1c70 00000000 16020000 80000000 00000000  ................
 1c80 3c020000 80000000 00000000 68020000  <...........h...
 1c90 80000000 00000000 92020000 80000000  ................
 1ca0 00000000 bb020000 80000000 00000000  ................
 1cb0 d5020000 80000000 00000000 f0020000  ................
 1cc0 80000000 00000000 10030000 80000000  ................
 1cd0 00000000 d40c0000 c2000000 2d2b0000  ............-+..
 1ce0 ed0c0000 c2000000 250f0000 f5090000  ........%.......
 1cf0 c2000000 33b80000 3e0d0000 c2000000  ....3...>.......
 1d00 890e0000 9f0d0000 c2000000 d8040000  ................
 1d10 cd110000 24002600 3a050000 da110000  ....$.&.:.......
 1d20 40002600 10000000 e3110000 40002600  @.&.........@.&.
 1d30 1c000000 00000000 2e000000 3a050000  ............:...
 1d40 00000000 44002700 00000000 00000000  ....D.'.........
 1d50 44002900 0c000000 00000000 44002a00  D.).........D.*.
 1d60 12000000 00000000 44002c00 18000000  ........D.,.....
 1d70 00000000 44002d00 1c000000 00000000  ....D.-.........
 1d80 44002e00 2a000000 00000000 44003200  D...*.......D.2.
 1d90 36000000 00000000 44003300 42000000  6.......D.3.B...
 1da0 00000000 44003800 4c000000 00000000  ....D.8.L.......
 1db0 24000000 58000000 00000000 4e000000  $...X.......N...
 1dc0 92050000 00000000 64000000 e6000000  ........d.......
 1dd0 f9110000 64000000 e6000000 09120000  ....d...........
 1de0 84000000 92050000 00000000 44005000  ............D.P.
 1df0 92050000 00000000 44005100 94050000  ........D.Q.....
 1e00 00000000 44005200 96050000 00000000  ....D.R.........
 1e10 44005300 98050000 00000000 44005400  D.S.........D.T.
 1e20 9a050000 00000000 44005500 9c050000  ........D.U.....
 1e30 00000000 44005800 9e050000 00000000  ....D.X.........
 1e40 44005a00 a0050000 00000000 44005c00  D.Z.........D.\.
 1e50 a2050000 00000000 44005e00 a4050000  ........D.^.....
 1e60 00000000 44005f00 a6050000 00000000  ....D._.........
 1e70 44006000 a8050000 00000000 44006100  D.`.........D.a.
 1e80 aa050000 00000000 44006200 ac050000  ........D.b.....
 1e90 00000000 44006400 ae050000 00000000  ....D.d.........
 1ea0 44006500 b0050000 00000000 44006700  D.e.........D.g.
 1eb0 b2050000 00000000 44006800 b4050000  ........D.h.....
 1ec0 00000000 44006a00 b6050000 00000000  ....D.j.........
 1ed0 44006b00 b8050000 00000000 44006c00  D.k.........D.l.
 1ee0 ba050000 00000000 44006d00 bc050000  ........D.m.....
 1ef0 00000000 44006e00 be050000 00000000  ....D.n.........
 1f00 44007000 c0050000 00000000 44007100  D.p.........D.q.
 1f10 c2050000 00000000 44007200 c4050000  ........D.r.....
 1f20 00000000 44007300 c6050000 00000000  ....D.s.........
 1f30 44007400 c8050000 00000000 44007600  D.t.........D.v.
 1f40 ca050000 00000000 44007700 cc050000  ........D.w.....
 1f50 00000000 44007800 ce050000 00000000  ....D.x.........
 1f60 44007900 d0050000 00000000 44007a00  D.y.........D.z.
 1f70 d2050000 00000000 44007c00 d4050000  ........D.|.....
 1f80 00000000 44007d00 d6050000 00000000  ....D.}.........
 1f90 44007e00 d8050000 00000000 44008100  D.~.........D...
 1fa0 da050000 00000000 44008300 dc050000  ........D.......
 1fb0 00000000 44008400 de050000 00000000  ....D...........
 1fc0 44008500 e0050000 00000000 44008d00  D...........D...
 1fd0 e2050000 00000000 44008f00 e4050000  ........D.......
 1fe0 00000000 44009000 e6050000 00000000  ....D...........
 1ff0 44009200 e8050000 00000000 44009500  D...........D...
 2000 ea050000 00000000 44009600 ec050000  ........D.......
 2010 00000000 44009a00 ee050000 00000000  ....D...........
 2020 44009b00 f0050000 00000000 44009c00  D...........D...
 2030 f2050000 00000000 44009d00 f4050000  ........D.......
 2040 00000000 44009e00 f6050000 00000000  ....D...........
 2050 44009f00 f8050000 00000000 4400a000  D...........D...
 2060 fa050000 00000000 4400a100 fc050000  ........D.......
 2070 00000000 4400a500 fe050000 00000000  ....D...........
 2080 4400a600 00060000 00000000 4400a700  D...........D...
 2090 02060000 00000000 4400a800 04060000  ........D.......
 20a0 00000000 4400a900 06060000 00000000  ....D...........
 20b0 4400aa00 08060000 00000000 4400ab00  D...........D...
 20c0 0a060000 00000000 4400ac00 0c060000  ........D.......
 20d0 00000000 4400ad00 0e060000 00000000  ....D...........
 20e0 4400ae00 10060000 00000000 4400af00  D...........D...
 20f0 12060000 00000000 4400b000 14060000  ........D.......
 2100 00000000 4400b300 16060000 00000000  ....D...........
 2110 4400b500 18060000 00000000 4400b600  D...........D...
 2120 1a060000 00000000 4400b700 1c060000  ........D.......
 2130 00000000 4400b800 1e060000 00000000  ....D...........
 2140 4400b900 20060000 00000000 4400ba00  D... .......D...
 2150 22060000 00000000 4400bb00 24060000  ".......D...$...
 2160 00000000 4400bd00 26060000 00000000  ....D...&.......
 2170 4400be00 28060000 00000000 4400bf00  D...(.......D...
 2180 2a060000 00000000 4400c000 2c060000  *.......D...,...
 2190 00000000 4400c400 2e060000 00000000  ....D...........
 21a0 4400c500 30060000 00000000 4400c600  D...0.......D...
 21b0 32060000 00000000 4400c800 34060000  2.......D...4...
 21c0 00000000 4400c900 36060000 00000000  ....D...6.......
 21d0 4400ca00 38060000 00000000 4400cb00  D...8.......D...
 21e0 3a060000 00000000 4400cc00 3c060000  :.......D...<...
 21f0 00000000 4400cd00 3e060000 00000000  ....D...>.......
 2200 4400ce00 40060000 00000000 4400d000  D...@.......D...
 2210 42060000 00000000 4400d100 44060000  B.......D...D...
 2220 00000000 4400d200 46060000 00000000  ....D...F.......
 2230 4400d300 48060000 00000000 4400d400  D...H.......D...
 2240 4a060000 00000000 4400d500 4c060000  J.......D...L...
Contents of section .stabstr:
 0000 002f746d 702f6363 50696752 31462e73  ./tmp/ccPigR1F.s
 0010 00766f69 643a7431 3d31005f 5f766563  .void:t1=1.__vec
 0020 746f7273 3a463100 2e2e2f2e 2e2f2e2e  tors:F1.../../..
 0030 2f2e2e2f 63727431 2f676372 74312e53  /../crt1/gcrt1.S
 0040 005f5f62 61645f69 6e746572 72757074  .__bad_interrupt
 0050 3a463100 70726f67 72616d2e 73002f68  :F1.program.s./h
 0060 6f6d652f 6176722d 636f6d70 696c6572  ome/avr-compiler
 0070 2f617672 2d776562 2d636f6d 70696c65  /avr-web-compile
 0080 722f7765 62617672 2f617672 636f6d70  r/webavr/avrcomp
 0090 696c6572 2f007772 61707065 725f7561  iler/.wrapper_ua
 00a0 72742e63 00676363 325f636f 6d70696c  rt.c.gcc2_compil
 00b0 65642e00 696e743a 7428302c 31293d72  ed..int:t(0,1)=r
 00c0 28302c31 293b2d33 32373638 3b333237  (0,1);-32768;327
 00d0 36373b00 63686172 3a742830 2c32293d  67;.char:t(0,2)=
 00e0 7228302c 32293b30 3b313237 3b006c6f  r(0,2);0;127;.lo
 00f0 6e672069 6e743a74 28302c33 293d4073  ng int:t(0,3)=@s
 0100 33323b72 28302c33 293b3032 30303030  32;r(0,3);020000
 0110 30303030 30303b30 31373737 37373737  000000;017777777
 0120 3737373b 00756e73 69676e65 6420696e  777;.unsigned in
 0130 743a7428 302c3429 3d722830 2c34293b  t:t(0,4)=r(0,4);
 0140 303b3031 37373737 373b006c 6f6e6720  0;0177777;.long 
 0150 756e7369 676e6564 20696e74 3a742830  unsigned int:t(0
 0160 2c35293d 40733332 3b722830 2c35293b  ,5)=@s32;r(0,5);
 0170 303b3033 37373737 37373737 37373b00  0;037777777777;.
 0180 6c6f6e67 206c6f6e 6720696e 743a7428  long long int:t(
 0190 302c3629 3d407336 343b7228 302c3629  0,6)=@s64;r(0,6)
 01a0 3b303130 30303030 30303030 30303030  ;010000000000000
 01b0 30303030 30303030 3b303737 37373737  00000000;0777777
 01c0 37373737 37373737 37373737 3737373b  777777777777777;
 01d0 006c6f6e 67206c6f 6e672075 6e736967  .long long unsig
 01e0 6e656420 696e743a 7428302c 37293d40  ned int:t(0,7)=@
 01f0 7336343b 7228302c 37293b30 3b303137  s64;r(0,7);0;017
 0200 37373737 37373737 37373737 37373737  7777777777777777
 0210 37373737 3b007368 6f727420 696e743a  7777;.short int:
 0220 7428302c 38293d72 28302c38 293b2d33  t(0,8)=r(0,8);-3
 0230 32373638 3b333237 36373b00 73686f72  2768;32767;.shor
 0240 7420756e 7369676e 65642069 6e743a74  t unsigned int:t
 0250 28302c39 293d7228 302c3929 3b303b30  (0,9)=r(0,9);0;0
 0260 31373737 37373b00 7369676e 65642063  177777;.signed c
 0270 6861723a 7428302c 3130293d 4073383b  har:t(0,10)=@s8;
 0280 7228302c 3130293b 2d313238 3b313237  r(0,10);-128;127
 0290 3b00756e 7369676e 65642063 6861723a  ;.unsigned char:
 02a0 7428302c 3131293d 4073383b 7228302c  t(0,11)=@s8;r(0,
 02b0 3131293b 303b3235 353b0066 6c6f6174  11);0;255;.float
 02c0 3a742830 2c313229 3d722830 2c31293b  :t(0,12)=r(0,1);
 02d0 343b303b 00646f75 626c653a 7428302c  4;0;.double:t(0,
 02e0 3133293d 7228302c 31293b34 3b303b00  13)=r(0,1);4;0;.
 02f0 6c6f6e67 20646f75 626c653a 7428302c  long double:t(0,
 0300 3134293d 7228302c 31293b34 3b303b00  14)=r(0,1);4;0;.
 0310 766f6964 3a742830 2c313529 3d28302c  void:t(0,15)=(0,
 0320 31352900 2f757372 2f6c6962 2f676363  15)./usr/lib/gcc
 0330 2f617672 2f342e37 2e322f2e 2e2f2e2e  /avr/4.7.2/../..
 0340 2f2e2e2f 6176722f 696e636c 7564652f  /../avr/include/
 0350 6176722f 696f2e68 002f7573 722f6c69  avr/io.h./usr/li
 0360 622f6763 632f6176 722f342e 372e322f  b/gcc/avr/4.7.2/
 0370 2e2e2f2e 2e2f2e2e 2f617672 2f696e63  ../../../avr/inc
 0380 6c756465 2f617672 2f736672 5f646566  lude/avr/sfr_def
 0390 732e6800 2f757372 2f6c6962 2f676363  s.h./usr/lib/gcc
 03a0 2f617672 2f342e37 2e322f2e 2e2f2e2e  /avr/4.7.2/../..
 03b0 2f2e2e2f 6176722f 696e636c 7564652f  /../avr/include/
 03c0 696e7474 79706573 2e68002f 7573722f  inttypes.h./usr/
 03d0 6c69622f 6763632f 6176722f 342e372e  lib/gcc/avr/4.7.
 03e0 322f696e 636c7564 652f7374 64696e74  2/include/stdint
 03f0 2e68002f 7573722f 6c69622f 6763632f  .h./usr/lib/gcc/
 0400 6176722f 342e372e 322f2e2e 2f2e2e2f  avr/4.7.2/../../
 0410 2e2e2f61 76722f69 6e636c75 64652f73  ../avr/include/s
 0420 7464696e 742e6800 696e7438 5f743a74  tdint.h.int8_t:t
 0430 28352c31 293d2830 2c313029 0075696e  (5,1)=(0,10).uin
 0440 74385f74 3a742835 2c32293d 28302c31  t8_t:t(5,2)=(0,1
 0450 31290069 6e743136 5f743a74 28352c33  1).int16_t:t(5,3
 0460 293d2830 2c312900 75696e74 31365f74  )=(0,1).uint16_t
 0470 3a742835 2c34293d 28302c34 2900696e  :t(5,4)=(0,4).in
 0480 7433325f 743a7428 352c3529 3d28302c  t32_t:t(5,5)=(0,
 0490 33290075 696e7433 325f743a 7428352c  3).uint32_t:t(5,
 04a0 36293d28 302c3529 00696e74 36345f74  6)=(0,5).int64_t
 04b0 3a742835 2c37293d 28302c36 29007569  :t(5,7)=(0,6).ui
 04c0 6e743634 5f743a74 28352c38 293d2830  nt64_t:t(5,8)=(0
 04d0 2c372900 696e7470 74725f74 3a742835  ,7).intptr_t:t(5
 04e0 2c39293d 28352c33 29007569 6e747074  ,9)=(5,3).uintpt
 04f0 725f743a 7428352c 3130293d 28352c34  r_t:t(5,10)=(5,4
 0500 2900696e 745f6c65 61737438 5f743a74  ).int_least8_t:t
 0510 28352c31 31293d28 352c3129 0075696e  (5,11)=(5,1).uin
 0520 745f6c65 61737438 5f743a74 28352c31  t_least8_t:t(5,1
 0530 32293d28 352c3229 00696e74 5f6c6561  2)=(5,2).int_lea
 0540 73743136 5f743a74 28352c31 33293d28  st16_t:t(5,13)=(
 0550 352c3329 0075696e 745f6c65 61737431  5,3).uint_least1
 0560 365f743a 7428352c 3134293d 28352c34  6_t:t(5,14)=(5,4
 0570 2900696e 745f6c65 61737433 325f743a  ).int_least32_t:
 0580 7428352c 3135293d 28352c35 29007569  t(5,15)=(5,5).ui
 0590 6e745f6c 65617374 33325f74 3a742835  nt_least32_t:t(5
 05a0 2c313629 3d28352c 36290069 6e745f6c  ,16)=(5,6).int_l
 05b0 65617374 36345f74 3a742835 2c313729  east64_t:t(5,17)
 05c0 3d28352c 37290075 696e745f 6c656173  =(5,7).uint_leas
 05d0 7436345f 743a7428 352c3138 293d2835  t64_t:t(5,18)=(5
 05e0 2c382900 696e745f 66617374 385f743a  ,8).int_fast8_t:
 05f0 7428352c 3139293d 28352c31 29007569  t(5,19)=(5,1).ui
 0600 6e745f66 61737438 5f743a74 28352c32  nt_fast8_t:t(5,2
 0610 30293d28 352c3229 00696e74 5f666173  0)=(5,2).int_fas
 0620 7431365f 743a7428 352c3231 293d2835  t16_t:t(5,21)=(5
 0630 2c332900 75696e74 5f666173 7431365f  ,3).uint_fast16_
 0640 743a7428 352c3232 293d2835 2c342900  t:t(5,22)=(5,4).
 0650 696e745f 66617374 33325f74 3a742835  int_fast32_t:t(5
 0660 2c323329 3d28352c 35290075 696e745f  ,23)=(5,5).uint_
 0670 66617374 33325f74 3a742835 2c323429  fast32_t:t(5,24)
 0680 3d28352c 36290069 6e745f66 61737436  =(5,6).int_fast6
 0690 345f743a 7428352c 3235293d 28352c37  4_t:t(5,25)=(5,7
 06a0 29007569 6e745f66 61737436 345f743a  ).uint_fast64_t:
 06b0 7428352c 3236293d 28352c38 2900696e  t(5,26)=(5,8).in
 06c0 746d6178 5f743a74 28352c32 37293d28  tmax_t:t(5,27)=(
 06d0 352c3729 0075696e 746d6178 5f743a74  5,7).uintmax_t:t
 06e0 28352c32 38293d28 352c3829 00696e74  (5,28)=(5,8).int
 06f0 5f666172 7074725f 743a7428 332c3129  _farptr_t:t(3,1)
 0700 3d28352c 35290075 696e745f 66617270  =(5,5).uint_farp
 0710 74725f74 3a742833 2c32293d 28352c36  tr_t:t(3,2)=(5,6
 0720 29002f75 73722f6c 69622f67 63632f61  )./usr/lib/gcc/a
 0730 76722f34 2e372e32 2f2e2e2f 2e2e2f2e  vr/4.7.2/../../.
 0740 2e2f6176 722f696e 636c7564 652f6176  ./avr/include/av
 0750 722f6675 73652e68 005f5f66 7573655f  r/fuse.h.__fuse_
 0760 743a7428 362c3129 3d28362c 32293d73  t:t(6,1)=(6,2)=s
 0770 336c6f77 3a28302c 3131292c 302c383b  3low:(0,11),0,8;
 0780 68696768 3a28302c 3131292c 382c383b  high:(0,11),8,8;
 0790 65787465 6e646564 3a28302c 3131292c  extended:(0,11),
 07a0 31362c38 3b3b002f 7573722f 6c69622f  16,8;;./usr/lib/
 07b0 6763632f 6176722f 342e372e 322f2e2e  gcc/avr/4.7.2/..
 07c0 2f2e2e2f 2e2e2f61 76722f69 6e636c75  /../../avr/inclu
 07d0 64652f73 7464696f 2e68002f 7573722f  de/stdio.h./usr/
 07e0 6c69622f 6763632f 6176722f 342e372e  lib/gcc/avr/4.7.
 07f0 322f696e 636c7564 652f7374 64617267  2/include/stdarg
 0800 2e68005f 5f676e75 635f7661 5f6c6973  .h.__gnuc_va_lis
 0810 743a7428 382c3129 3d28382c 32293d2a  t:t(8,1)=(8,2)=*
 0820 28302c31 35290076 615f6c69 73743a74  (0,15).va_list:t
 0830 28382c33 293d2838 2c312900 2f757372  (8,3)=(8,1)./usr
 0840 2f6c6962 2f676363 2f617672 2f342e37  /lib/gcc/avr/4.7
 0850 2e322f69 6e636c75 64652f73 74646465  .2/include/stdde
 0860 662e6800 73697a65 5f743a74 28392c31  f.h.size_t:t(9,1
 0870 293d2830 2c342900 5f5f6669 6c653a54  )=(0,4).__file:T
 0880 28372c31 293d7331 34627566 3a28372c  (7,1)=s14buf:(7,
 0890 32293d2a 28302c32 292c302c 31363b75  2)=*(0,2),0,16;u
 08a0 6e676574 3a28302c 3131292c 31362c38  nget:(0,11),16,8
 08b0 3b666c61 67733a28 352c3229 2c32342c  ;flags:(5,2),24,
 08c0 383b7369 7a653a28 302c3129 2c33322c  8;size:(0,1),32,
 08d0 31363b6c 656e3a28 302c3129 2c34382c  16;len:(0,1),48,
 08e0 31363b70 75743a28 372c3329 3d2a2837  16;put:(7,3)=*(7
 08f0 2c34293d 6628302c 31292c36 342c3136  ,4)=f(0,1),64,16
 0900 3b676574 3a28372c 35293d2a 28372c36  ;get:(7,5)=*(7,6
 0910 293d6628 302c3129 2c38302c 31363b75  )=f(0,1),80,16;u
 0920 64617461 3a28372c 37293d2a 28302c31  data:(7,7)=*(0,1
 0930 35292c39 362c3136 3b3b0075 73617274  5),96,16;;.usart
 0940 5f707574 63686172 5f707269 6e74663a  _putchar_printf:
 0950 6628302c 31290076 61723a50 28302c32  f(0,1).var:P(0,2
 0960 29007374 7265616d 3a502830 2c313629  ).stream:P(0,16)
 0970 3d2a2837 2c312900 6d61696e 3a462830  =*(7,1).main:F(0
 0980 2c312900 7072696e 745f696e 74656765  ,1).print_intege
 0990 723a4628 302c3135 29006d79 7374646f  r:F(0,15).mystdo
 09a0 75743a53 28372c31 29002f68 6f6d652f  ut:S(7,1)./home/
 09b0 68616b61 6e2f7372 632f6465 622f6176  hakan/src/deb/av
 09c0 722d6c69 62632d31 2e382e30 2f617672  r-libc-1.8.0/avr
 09d0 2f6c6962 2f617672 352f002e 2e2f2e2e  /lib/avr5/.../..
 09e0 2f2e2e2f 6c696263 2f737464 696f2f69  /../libc/stdio/i
 09f0 6f622e63 002e2e2f 2e2e2f2e 2e2f696e  ob.c.../../../in
 0a00 636c7564 652f7374 64696e74 2e680069  clude/stdint.h.i
 0a10 6e74385f 743a7428 312c3129 3d28302c  nt8_t:t(1,1)=(0,
 0a20 31302900 75696e74 385f743a 7428312c  10).uint8_t:t(1,
 0a30 32293d28 302c3131 2900696e 7431365f  2)=(0,11).int16_
 0a40 743a7428 312c3329 3d28302c 31290075  t:t(1,3)=(0,1).u
 0a50 696e7431 365f743a 7428312c 34293d28  int16_t:t(1,4)=(
 0a60 302c3429 00696e74 33325f74 3a742831  0,4).int32_t:t(1
 0a70 2c35293d 28302c33 29007569 6e743332  ,5)=(0,3).uint32
 0a80 5f743a74 28312c36 293d2830 2c352900  _t:t(1,6)=(0,5).
 0a90 696e7436 345f743a 7428312c 37293d28  int64_t:t(1,7)=(
 0aa0 302c3629 0075696e 7436345f 743a7428  0,6).uint64_t:t(
 0ab0 312c3829 3d28302c 37290069 6e747074  1,8)=(0,7).intpt
 0ac0 725f743a 7428312c 39293d28 312c3329  r_t:t(1,9)=(1,3)
 0ad0 0075696e 74707472 5f743a74 28312c31  .uintptr_t:t(1,1
 0ae0 30293d28 312c3429 00696e74 5f6c6561  0)=(1,4).int_lea
 0af0 7374385f 743a7428 312c3131 293d2831  st8_t:t(1,11)=(1
 0b00 2c312900 75696e74 5f6c6561 7374385f  ,1).uint_least8_
 0b10 743a7428 312c3132 293d2831 2c322900  t:t(1,12)=(1,2).
 0b20 696e745f 6c656173 7431365f 743a7428  int_least16_t:t(
 0b30 312c3133 293d2831 2c332900 75696e74  1,13)=(1,3).uint
 0b40 5f6c6561 73743136 5f743a74 28312c31  _least16_t:t(1,1
 0b50 34293d28 312c3429 00696e74 5f6c6561  4)=(1,4).int_lea
 0b60 73743332 5f743a74 28312c31 35293d28  st32_t:t(1,15)=(
 0b70 312c3529 0075696e 745f6c65 61737433  1,5).uint_least3
 0b80 325f743a 7428312c 3136293d 28312c36  2_t:t(1,16)=(1,6
 0b90 2900696e 745f6c65 61737436 345f743a  ).int_least64_t:
 0ba0 7428312c 3137293d 28312c37 29007569  t(1,17)=(1,7).ui
 0bb0 6e745f6c 65617374 36345f74 3a742831  nt_least64_t:t(1
 0bc0 2c313829 3d28312c 38290069 6e745f66  ,18)=(1,8).int_f
 0bd0 61737438 5f743a74 28312c31 39293d28  ast8_t:t(1,19)=(
 0be0 312c3129 0075696e 745f6661 7374385f  1,1).uint_fast8_
 0bf0 743a7428 312c3230 293d2831 2c322900  t:t(1,20)=(1,2).
 0c00 696e745f 66617374 31365f74 3a742831  int_fast16_t:t(1
 0c10 2c323129 3d28312c 33290075 696e745f  ,21)=(1,3).uint_
 0c20 66617374 31365f74 3a742831 2c323229  fast16_t:t(1,22)
 0c30 3d28312c 34290069 6e745f66 61737433  =(1,4).int_fast3
 0c40 325f743a 7428312c 3233293d 28312c35  2_t:t(1,23)=(1,5
 0c50 29007569 6e745f66 61737433 325f743a  ).uint_fast32_t:
 0c60 7428312c 3234293d 28312c36 2900696e  t(1,24)=(1,6).in
 0c70 745f6661 73743634 5f743a74 28312c32  t_fast64_t:t(1,2
 0c80 35293d28 312c3729 0075696e 745f6661  5)=(1,7).uint_fa
 0c90 73743634 5f743a74 28312c32 36293d28  st64_t:t(1,26)=(
 0ca0 312c3829 00696e74 6d61785f 743a7428  1,8).intmax_t:t(
 0cb0 312c3237 293d2831 2c372900 75696e74  1,27)=(1,7).uint
 0cc0 6d61785f 743a7428 312c3238 293d2831  max_t:t(1,28)=(1
 0cd0 2c382900 2e2e2f2e 2e2f2e2e 2f696e63  ,8).../../../inc
 0ce0 6c756465 2f737464 696f2e68 002e2e2f  lude/stdio.h.../
 0cf0 2e2e2f2e 2e2f696e 636c7564 652f696e  ../../include/in
 0d00 74747970 65732e68 00696e74 5f666172  ttypes.h.int_far
 0d10 7074725f 743a7428 332c3129 3d28312c  ptr_t:t(3,1)=(1,
 0d20 35290075 696e745f 66617270 74725f74  5).uint_farptr_t
 0d30 3a742833 2c32293d 28312c36 29002f75  :t(3,2)=(1,6)./u
 0d40 73722f6c 69622f67 63632f61 76722f34  sr/lib/gcc/avr/4
 0d50 2e372e30 2f696e63 6c756465 2f737464  .7.0/include/std
 0d60 6172672e 68005f5f 676e7563 5f76615f  arg.h.__gnuc_va_
 0d70 6c697374 3a742834 2c31293d 28342c32  list:t(4,1)=(4,2
 0d80 293d2a28 302c3135 29007661 5f6c6973  )=*(0,15).va_lis
 0d90 743a7428 342c3329 3d28342c 3129002f  t:t(4,3)=(4,1)./
 0da0 7573722f 6c69622f 6763632f 6176722f  usr/lib/gcc/avr/
 0db0 342e372e 302f696e 636c7564 652f7374  4.7.0/include/st
 0dc0 64646566 2e680073 697a655f 743a7428  ddef.h.size_t:t(
 0dd0 352c3129 3d28302c 3429005f 5f66696c  5,1)=(0,4).__fil
 0de0 653a5428 322c3129 3d733134 6275663a  e:T(2,1)=s14buf:
 0df0 28322c32 293d2a28 302c3229 2c302c31  (2,2)=*(0,2),0,1
 0e00 363b756e 6765743a 28302c31 31292c31  6;unget:(0,11),1
 0e10 362c383b 666c6167 733a2831 2c32292c  6,8;flags:(1,2),
 0e20 32342c38 3b73697a 653a2830 2c31292c  24,8;size:(0,1),
 0e30 33322c31 363b6c65 6e3a2830 2c31292c  32,16;len:(0,1),
 0e40 34382c31 363b7075 743a2832 2c33293d  48,16;put:(2,3)=
 0e50 2a28322c 34293d66 28302c31 292c3634  *(2,4)=f(0,1),64
 0e60 2c31363b 6765743a 28322c35 293d2a28  ,16;get:(2,5)=*(
 0e70 322c3629 3d662830 2c31292c 38302c31  2,6)=f(0,1),80,1
 0e80 363b7564 6174613a 28322c37 293d2a28  6;udata:(2,7)=*(
 0e90 302c3135 292c3936 2c31363b 3b005f5f  0,15),96,16;;.__
 0ea0 696f623a 4728302c 3136293d 61722830  iob:G(0,16)=ar(0
 0eb0 2c313729 3d722830 2c313729 3b303b30  ,17)=r(0,17);0;0
 0ec0 31373737 37373b3b 303b323b 28302c31  177777;;0;2;(0,1
 0ed0 38293d2a 28322c31 29002e2e 2f2e2e2f  8)=*(2,1).../../
 0ee0 2e2e2f6c 6962632f 73746469 6f2f7072  ../libc/stdio/pr
 0ef0 696e7466 2e630070 72696e74 663a4628  intf.c.printf:F(
 0f00 302c3129 00666d74 3a702830 2c313629  0,1).fmt:p(0,16)
 0f10 3d2a2830 2c313729 3d6b2830 2c322900  =*(0,17)=k(0,2).
 0f20 61703a28 312c3329 00666d74 3a722830  ap:(1,3).fmt:r(0
 0f30 2c313629 002e2e2f 2e2e2f2e 2e2f6c69  ,16).../../../li
 0f40 62632f73 7464696f 2f766670 72696e74  bc/stdio/vfprint
 0f50 662e6300 2e2e2f2e 2e2f2e2e 2f696e63  f.c.../../../inc
 0f60 6c756465 2f617672 2f70676d 73706163  lude/avr/pgmspac
 0f70 652e6800 2e2e2f2e 2e2f2e2e 2f696e63  e.h.../../../inc
 0f80 6c756465 2f737464 6c69622e 68007763  lude/stdlib.h.wc
 0f90 6861725f 743a7428 382c3129 3d28302c  har_t:t(8,1)=(0,
 0fa0 31290064 69765f74 3a742837 2c31293d  1).div_t:t(7,1)=
 0fb0 28372c32 293d7334 71756f74 3a28302c  (7,2)=s4quot:(0,
 0fc0 31292c30 2c31363b 72656d3a 28302c31  1),0,16;rem:(0,1
 0fd0 292c3136 2c31363b 3b006c64 69765f74  ),16,16;;.ldiv_t
 0fe0 3a742837 2c33293d 28372c34 293d7338  :t(7,3)=(7,4)=s8
 0ff0 71756f74 3a28302c 33292c30 2c33323b  quot:(0,3),0,32;
 1000 72656d3a 28302c33 292c3332 2c33323b  rem:(0,3),32,32;
 1010 3b005f5f 636f6d70 61725f66 6e5f743a  ;.__compar_fn_t:
 1020 7428372c 35293d28 372c3629 3d2a2837  t(7,5)=(7,6)=*(7
 1030 2c37293d 6628302c 3129002e 2e2f2e2e  ,7)=f(0,1).../..
 1040 2f2e2e2f 6c696263 2f737464 696f2f78  /../libc/stdio/x
 1050 746f615f 66617374 2e680070 74726469  toa_fast.h.ptrdi
 1060 66665f74 3a742831 302c3129 3d28302c  ff_t:t(10,1)=(0,
 1070 31290076 66707269 6e74663a 4628302c  1).vfprintf:F(0,
 1080 31290073 74726561 6d3a5028 302c3136  1).stream:P(0,16
 1090 293d2a28 362c3129 00666d74 3a502830  )=*(6,1).fmt:P(0
 10a0 2c313729 3d2a2830 2c313829 3d6b2830  ,17)=*(0,18)=k(0
 10b0 2c322900 61703a50 28352c33 29007769  ,2).ap:P(5,3).wi
 10c0 6474683a 7228302c 31312900 70726563  dth:r(0,11).prec
 10d0 3a722830 2c313129 00627566 3a28302c  :r(0,11).buf:(0,
 10e0 3139293d 61722830 2c323029 3d722830  19)=ar(0,20)=r(0
 10f0 2c323029 3b303b30 31373737 37373b3b  ,20);0;0177777;;
 1100 303b3130 3b28302c 31312900 706e743a  0;10;(0,11).pnt:
 1110 7228302c 31372900 73697a65 3a722834  r(0,17).size:r(4
 1120 2c312900 783a7228 302c3329 00626173  ,1).x:r(0,3).bas
 1130 653a7228 302c3129 006c656e 3a722830  e:r(0,1).len:r(0
 1140 2c313129 007a3a72 28302c31 3129002f  ,11).z:r(0,11)./
 1150 746d702f 63637369 53485664 2e73002e  tmp/ccsiSHVd.s..
 1160 2e2f2e2e 2f2e2e2f 6c696263 2f706d73  ./../../libc/pms
 1170 7472696e 672f7374 726e6c65 6e5f502e  tring/strnlen_P.
 1180 53002f74 6d702f63 63394b33 4231632e  S./tmp/cc9K3B1c.
 1190 73002e2e 2f2e2e2f 2e2e2f6c 6962632f  s.../../../libc/
 11a0 73747269 6e672f73 74726e6c 656e2e53  string/strnlen.S
 11b0 002e2e2f 2e2e2f2e 2e2f6c69 62632f73  .../../../libc/s
 11c0 7464696f 2f667075 74632e63 00667075  tdio/fputc.c.fpu
 11d0 74633a46 28302c31 2900633a 5028302c  tc:F(0,1).c:P(0,
 11e0 31290073 74726561 6d3a5028 302c3136  1).stream:P(0,16
 11f0 293d2a28 312c3129 002f746d 702f6363  )=*(1,1)./tmp/cc
 1200 397a3972 536e2e73 002e2e2f 2e2e2f2e  9z9rSn.s.../../.
 1210 2e2f6c69 62632f73 7464696f 2f756c74  ./libc/stdio/ult
 1220 6f615f69 6e766572 742e5300           oa_invert.S.    
Contents of section .comment:
 0000 4743433a 2028474e 55292034 2e372e32  GCC: (GNU) 4.7.2
 0010 00474343 3a202847 4e552920 342e372e  .GCC: (GNU) 4.7.
 0020 3000                                 0.              

Disassembly of section .text:

00000000 <__vectors>:
   0:	0c 94 34 00 	jmp	0x68	; 0x68 <__ctors_end>
   4:	0c 94 51 00 	jmp	0xa2	; 0xa2 <__bad_interrupt>
   8:	0c 94 51 00 	jmp	0xa2	; 0xa2 <__bad_interrupt>
   c:	0c 94 51 00 	jmp	0xa2	; 0xa2 <__bad_interrupt>
  10:	0c 94 51 00 	jmp	0xa2	; 0xa2 <__bad_interrupt>
  14:	0c 94 51 00 	jmp	0xa2	; 0xa2 <__bad_interrupt>
  18:	0c 94 51 00 	jmp	0xa2	; 0xa2 <__bad_interrupt>
  1c:	0c 94 51 00 	jmp	0xa2	; 0xa2 <__bad_interrupt>
  20:	0c 94 51 00 	jmp	0xa2	; 0xa2 <__bad_interrupt>
  24:	0c 94 51 00 	jmp	0xa2	; 0xa2 <__bad_interrupt>
  28:	0c 94 51 00 	jmp	0xa2	; 0xa2 <__bad_interrupt>
  2c:	0c 94 51 00 	jmp	0xa2	; 0xa2 <__bad_interrupt>
  30:	0c 94 51 00 	jmp	0xa2	; 0xa2 <__bad_interrupt>
  34:	0c 94 51 00 	jmp	0xa2	; 0xa2 <__bad_interrupt>
  38:	0c 94 51 00 	jmp	0xa2	; 0xa2 <__bad_interrupt>
  3c:	0c 94 51 00 	jmp	0xa2	; 0xa2 <__bad_interrupt>
  40:	0c 94 51 00 	jmp	0xa2	; 0xa2 <__bad_interrupt>
  44:	0c 94 51 00 	jmp	0xa2	; 0xa2 <__bad_interrupt>
  48:	0c 94 51 00 	jmp	0xa2	; 0xa2 <__bad_interrupt>
  4c:	0c 94 51 00 	jmp	0xa2	; 0xa2 <__bad_interrupt>
  50:	0c 94 51 00 	jmp	0xa2	; 0xa2 <__bad_interrupt>
  54:	0c 94 51 00 	jmp	0xa2	; 0xa2 <__bad_interrupt>
  58:	0c 94 51 00 	jmp	0xa2	; 0xa2 <__bad_interrupt>
  5c:	0c 94 51 00 	jmp	0xa2	; 0xa2 <__bad_interrupt>
  60:	0c 94 51 00 	jmp	0xa2	; 0xa2 <__bad_interrupt>
  64:	0c 94 51 00 	jmp	0xa2	; 0xa2 <__bad_interrupt>

00000068 <__ctors_end>:
  68:	11 24       	eor	r1, r1
  6a:	1f be       	out	0x3f, r1	; 63
  6c:	cf ef       	ldi	r28, 0xFF	; 255
  6e:	d8 e0       	ldi	r29, 0x08	; 8
  70:	de bf       	out	0x3e, r29	; 62
  72:	cd bf       	out	0x3d, r28	; 61

00000074 <__do_copy_data>:
  74:	11 e0       	ldi	r17, 0x01	; 1
  76:	a0 e0       	ldi	r26, 0x00	; 0
  78:	b1 e0       	ldi	r27, 0x01	; 1
  7a:	e0 ec       	ldi	r30, 0xC0	; 192
  7c:	f6 e0       	ldi	r31, 0x06	; 6
  7e:	02 c0       	rjmp	.+4      	; 0x84 <__do_copy_data+0x10>
  80:	05 90       	lpm	r0, Z+
  82:	0d 92       	st	X+, r0
  84:	a8 34       	cpi	r26, 0x48	; 72
  86:	b1 07       	cpc	r27, r17
  88:	d9 f7       	brne	.-10     	; 0x80 <__do_copy_data+0xc>

0000008a <__do_clear_bss>:
  8a:	11 e0       	ldi	r17, 0x01	; 1
  8c:	a8 e4       	ldi	r26, 0x48	; 72
  8e:	b1 e0       	ldi	r27, 0x01	; 1
  90:	01 c0       	rjmp	.+2      	; 0x94 <.do_clear_bss_start>

00000092 <.do_clear_bss_loop>:
  92:	1d 92       	st	X+, r1

00000094 <.do_clear_bss_start>:
  94:	ae 34       	cpi	r26, 0x4E	; 78
  96:	b1 07       	cpc	r27, r17
  98:	e1 f7       	brne	.-8      	; 0x92 <.do_clear_bss_loop>
  9a:	0e 94 73 00 	call	0xe6	; 0xe6 <main>
  9e:	0c 94 5e 03 	jmp	0x6bc	; 0x6bc <_exit>

000000a2 <__bad_interrupt>:
  a2:	0c 94 00 00 	jmp	0	; 0x0 <__vectors>

000000a6 <asm_function>:
;;; Code definition goes here
.section .text
	.global asm_function

asm_function:
	ret
  a6:	08 95       	ret

000000a8 <usart_putchar_printf>:
******************************************************************************/
// this function is called by printf as a stream handler
static int usart_putchar_printf(char var, FILE *stream) {

    // translate \n to \r for br@y++ terminal
    if (var == '\n') {
  a8:	8a 30       	cpi	r24, 0x0A	; 10
  aa:	39 f4       	brne	.+14     	; 0xba <usart_putchar_printf+0x12>
  registers accordingly.]

******************************************************************************/
static void usart_putchar(char data) {
    // Wait for empty transmit buffer
    while (!(UCSR0A & (_BV(UDRE0))));
  ac:	90 91 c0 00 	lds	r25, 0x00C0
  b0:	95 ff       	sbrs	r25, 5
  b2:	fc cf       	rjmp	.-8      	; 0xac <usart_putchar_printf+0x4>

    // Start transmission
    UDR0 = data;
  b4:	9d e0       	ldi	r25, 0x0D	; 13
  b6:	90 93 c6 00 	sts	0x00C6, r25
  registers accordingly.]

******************************************************************************/
static void usart_putchar(char data) {
    // Wait for empty transmit buffer
    while (!(UCSR0A & (_BV(UDRE0))));
  ba:	90 91 c0 00 	lds	r25, 0x00C0
  be:	95 ff       	sbrs	r25, 5
  c0:	fc cf       	rjmp	.-8      	; 0xba <usart_putchar_printf+0x12>

    // Start transmission
    UDR0 = data;
  c2:	80 93 c6 00 	sts	0x00C6, r24
    if (var == '\n') {
        usart_putchar('\r');
    }
    usart_putchar(var);
    return 0;
}
  c6:	80 e0       	ldi	r24, 0x00	; 0
  c8:	90 e0       	ldi	r25, 0x00	; 0
  ca:	08 95       	ret

000000cc <print_integer>:
  cc:	9f 93       	push	r25
  ce:	8f 93       	push	r24
  d0:	8d e2       	ldi	r24, 0x2D	; 45
  d2:	91 e0       	ldi	r25, 0x01	; 1
  d4:	9f 93       	push	r25
  d6:	8f 93       	push	r24
  d8:	0e 94 93 00 	call	0x126	; 0x126 <printf>
  dc:	0f 90       	pop	r0
  de:	0f 90       	pop	r0
  e0:	0f 90       	pop	r0
  e2:	0f 90       	pop	r0
  e4:	08 95       	ret

000000e6 <main>:
  e6:	80 e0       	ldi	r24, 0x00	; 0
  e8:	91 e0       	ldi	r25, 0x01	; 1
  ea:	90 93 4b 01 	sts	0x014B, r25
  ee:	80 93 4a 01 	sts	0x014A, r24
  f2:	10 92 c5 00 	sts	0x00C5, r1
  f6:	87 e6       	ldi	r24, 0x67	; 103
  f8:	80 93 c4 00 	sts	0x00C4, r24
  fc:	88 e1       	ldi	r24, 0x18	; 24
  fe:	80 93 c1 00 	sts	0x00C1, r24
 102:	86 e0       	ldi	r24, 0x06	; 6
 104:	80 93 c2 00 	sts	0x00C2, r24
 108:	0e 94 53 00 	call	0xa6	; 0xa6 <asm_function>
 10c:	9f 93       	push	r25
 10e:	8f 93       	push	r24
 110:	8e e0       	ldi	r24, 0x0E	; 14
 112:	91 e0       	ldi	r25, 0x01	; 1
 114:	9f 93       	push	r25
 116:	8f 93       	push	r24
 118:	0e 94 93 00 	call	0x126	; 0x126 <printf>
 11c:	0f 90       	pop	r0
 11e:	0f 90       	pop	r0
 120:	0f 90       	pop	r0
 122:	0f 90       	pop	r0
 124:	ff cf       	rjmp	.-2      	; 0x124 <main+0x3e>

00000126 <printf>:
 126:	a2 e0       	ldi	r26, 0x02	; 2
 128:	b0 e0       	ldi	r27, 0x00	; 0
 12a:	e9 e9       	ldi	r30, 0x99	; 153
 12c:	f0 e0       	ldi	r31, 0x00	; 0
 12e:	0c 94 37 03 	jmp	0x66e	; 0x66e <__prologue_saves__+0x20>
 132:	fe 01       	movw	r30, r28
 134:	37 96       	adiw	r30, 0x07	; 7
 136:	61 91       	ld	r22, Z+
 138:	71 91       	ld	r23, Z+
 13a:	fa 83       	std	Y+2, r31	; 0x02
 13c:	e9 83       	std	Y+1, r30	; 0x01
 13e:	af 01       	movw	r20, r30
 140:	80 91 4a 01 	lds	r24, 0x014A
 144:	90 91 4b 01 	lds	r25, 0x014B
 148:	0e 94 aa 00 	call	0x154	; 0x154 <vfprintf>
 14c:	22 96       	adiw	r28, 0x02	; 2
 14e:	e2 e0       	ldi	r30, 0x02	; 2
 150:	0c 94 53 03 	jmp	0x6a6	; 0x6a6 <__epilogue_restores__+0x20>

00000154 <vfprintf>:
 154:	ac e0       	ldi	r26, 0x0C	; 12
 156:	b0 e0       	ldi	r27, 0x00	; 0
 158:	e0 eb       	ldi	r30, 0xB0	; 176
 15a:	f0 e0       	ldi	r31, 0x00	; 0
 15c:	0c 94 27 03 	jmp	0x64e	; 0x64e <__prologue_saves__>
 160:	7c 01       	movw	r14, r24
 162:	6b 01       	movw	r12, r22
 164:	8a 01       	movw	r16, r20
 166:	fc 01       	movw	r30, r24
 168:	17 82       	std	Z+7, r1	; 0x07
 16a:	16 82       	std	Z+6, r1	; 0x06
 16c:	83 81       	ldd	r24, Z+3	; 0x03
 16e:	81 ff       	sbrs	r24, 1
 170:	c7 c1       	rjmp	.+910    	; 0x500 <vfprintf+0x3ac>
 172:	88 24       	eor	r8, r8
 174:	83 94       	inc	r8
 176:	91 2c       	mov	r9, r1
 178:	8c 0e       	add	r8, r28
 17a:	9d 1e       	adc	r9, r29
 17c:	f7 01       	movw	r30, r14
 17e:	93 81       	ldd	r25, Z+3	; 0x03
 180:	f6 01       	movw	r30, r12
 182:	93 fd       	sbrc	r25, 3
 184:	85 91       	lpm	r24, Z+
 186:	93 ff       	sbrs	r25, 3
 188:	81 91       	ld	r24, Z+
 18a:	6f 01       	movw	r12, r30
 18c:	88 23       	and	r24, r24
 18e:	09 f4       	brne	.+2      	; 0x192 <vfprintf+0x3e>
 190:	b3 c1       	rjmp	.+870    	; 0x4f8 <vfprintf+0x3a4>
 192:	85 32       	cpi	r24, 0x25	; 37
 194:	39 f4       	brne	.+14     	; 0x1a4 <vfprintf+0x50>
 196:	93 fd       	sbrc	r25, 3
 198:	85 91       	lpm	r24, Z+
 19a:	93 ff       	sbrs	r25, 3
 19c:	81 91       	ld	r24, Z+
 19e:	6f 01       	movw	r12, r30
 1a0:	85 32       	cpi	r24, 0x25	; 37
 1a2:	29 f4       	brne	.+10     	; 0x1ae <vfprintf+0x5a>
 1a4:	b7 01       	movw	r22, r14
 1a6:	90 e0       	ldi	r25, 0x00	; 0
 1a8:	0e 94 9d 02 	call	0x53a	; 0x53a <fputc>
 1ac:	e7 cf       	rjmp	.-50     	; 0x17c <vfprintf+0x28>
 1ae:	71 2c       	mov	r7, r1
 1b0:	31 2c       	mov	r3, r1
 1b2:	20 e0       	ldi	r18, 0x00	; 0
 1b4:	20 32       	cpi	r18, 0x20	; 32
 1b6:	a8 f4       	brcc	.+42     	; 0x1e2 <vfprintf+0x8e>
 1b8:	8b 32       	cpi	r24, 0x2B	; 43
 1ba:	61 f0       	breq	.+24     	; 0x1d4 <vfprintf+0x80>
 1bc:	28 f4       	brcc	.+10     	; 0x1c8 <vfprintf+0x74>
 1be:	80 32       	cpi	r24, 0x20	; 32
 1c0:	51 f0       	breq	.+20     	; 0x1d6 <vfprintf+0x82>
 1c2:	83 32       	cpi	r24, 0x23	; 35
 1c4:	71 f4       	brne	.+28     	; 0x1e2 <vfprintf+0x8e>
 1c6:	0b c0       	rjmp	.+22     	; 0x1de <vfprintf+0x8a>
 1c8:	8d 32       	cpi	r24, 0x2D	; 45
 1ca:	39 f0       	breq	.+14     	; 0x1da <vfprintf+0x86>
 1cc:	80 33       	cpi	r24, 0x30	; 48
 1ce:	49 f4       	brne	.+18     	; 0x1e2 <vfprintf+0x8e>
 1d0:	21 60       	ori	r18, 0x01	; 1
 1d2:	28 c0       	rjmp	.+80     	; 0x224 <vfprintf+0xd0>
 1d4:	22 60       	ori	r18, 0x02	; 2
 1d6:	24 60       	ori	r18, 0x04	; 4
 1d8:	25 c0       	rjmp	.+74     	; 0x224 <vfprintf+0xd0>
 1da:	28 60       	ori	r18, 0x08	; 8
 1dc:	23 c0       	rjmp	.+70     	; 0x224 <vfprintf+0xd0>
 1de:	20 61       	ori	r18, 0x10	; 16
 1e0:	21 c0       	rjmp	.+66     	; 0x224 <vfprintf+0xd0>
 1e2:	27 fd       	sbrc	r18, 7
 1e4:	27 c0       	rjmp	.+78     	; 0x234 <vfprintf+0xe0>
 1e6:	38 2f       	mov	r19, r24
 1e8:	30 53       	subi	r19, 0x30	; 48
 1ea:	3a 30       	cpi	r19, 0x0A	; 10
 1ec:	78 f4       	brcc	.+30     	; 0x20c <vfprintf+0xb8>
 1ee:	26 ff       	sbrs	r18, 6
 1f0:	06 c0       	rjmp	.+12     	; 0x1fe <vfprintf+0xaa>
 1f2:	fa e0       	ldi	r31, 0x0A	; 10
 1f4:	7f 9e       	mul	r7, r31
 1f6:	30 0d       	add	r19, r0
 1f8:	11 24       	eor	r1, r1
 1fa:	73 2e       	mov	r7, r19
 1fc:	13 c0       	rjmp	.+38     	; 0x224 <vfprintf+0xd0>
 1fe:	8a e0       	ldi	r24, 0x0A	; 10
 200:	38 9e       	mul	r3, r24
 202:	30 0d       	add	r19, r0
 204:	11 24       	eor	r1, r1
 206:	33 2e       	mov	r3, r19
 208:	20 62       	ori	r18, 0x20	; 32
 20a:	0c c0       	rjmp	.+24     	; 0x224 <vfprintf+0xd0>
 20c:	8e 32       	cpi	r24, 0x2E	; 46
 20e:	21 f4       	brne	.+8      	; 0x218 <vfprintf+0xc4>
 210:	26 fd       	sbrc	r18, 6
 212:	72 c1       	rjmp	.+740    	; 0x4f8 <vfprintf+0x3a4>
 214:	20 64       	ori	r18, 0x40	; 64
 216:	06 c0       	rjmp	.+12     	; 0x224 <vfprintf+0xd0>
 218:	8c 36       	cpi	r24, 0x6C	; 108
 21a:	11 f4       	brne	.+4      	; 0x220 <vfprintf+0xcc>
 21c:	20 68       	ori	r18, 0x80	; 128
 21e:	02 c0       	rjmp	.+4      	; 0x224 <vfprintf+0xd0>
 220:	88 36       	cpi	r24, 0x68	; 104
 222:	41 f4       	brne	.+16     	; 0x234 <vfprintf+0xe0>
 224:	f6 01       	movw	r30, r12
 226:	93 fd       	sbrc	r25, 3
 228:	85 91       	lpm	r24, Z+
 22a:	93 ff       	sbrs	r25, 3
 22c:	81 91       	ld	r24, Z+
 22e:	6f 01       	movw	r12, r30
 230:	81 11       	cpse	r24, r1
 232:	c0 cf       	rjmp	.-128    	; 0x1b4 <vfprintf+0x60>
 234:	98 2f       	mov	r25, r24
 236:	95 54       	subi	r25, 0x45	; 69
 238:	93 30       	cpi	r25, 0x03	; 3
 23a:	18 f0       	brcs	.+6      	; 0x242 <vfprintf+0xee>
 23c:	90 52       	subi	r25, 0x20	; 32
 23e:	93 30       	cpi	r25, 0x03	; 3
 240:	28 f4       	brcc	.+10     	; 0x24c <vfprintf+0xf8>
 242:	0c 5f       	subi	r16, 0xFC	; 252
 244:	1f 4f       	sbci	r17, 0xFF	; 255
 246:	ff e3       	ldi	r31, 0x3F	; 63
 248:	f9 83       	std	Y+1, r31	; 0x01
 24a:	0d c0       	rjmp	.+26     	; 0x266 <vfprintf+0x112>
 24c:	83 36       	cpi	r24, 0x63	; 99
 24e:	31 f0       	breq	.+12     	; 0x25c <vfprintf+0x108>
 250:	83 37       	cpi	r24, 0x73	; 115
 252:	71 f0       	breq	.+28     	; 0x270 <vfprintf+0x11c>
 254:	83 35       	cpi	r24, 0x53	; 83
 256:	09 f0       	breq	.+2      	; 0x25a <vfprintf+0x106>
 258:	5e c0       	rjmp	.+188    	; 0x316 <vfprintf+0x1c2>
 25a:	23 c0       	rjmp	.+70     	; 0x2a2 <vfprintf+0x14e>
 25c:	f8 01       	movw	r30, r16
 25e:	80 81       	ld	r24, Z
 260:	89 83       	std	Y+1, r24	; 0x01
 262:	0e 5f       	subi	r16, 0xFE	; 254
 264:	1f 4f       	sbci	r17, 0xFF	; 255
 266:	66 24       	eor	r6, r6
 268:	63 94       	inc	r6
 26a:	71 2c       	mov	r7, r1
 26c:	54 01       	movw	r10, r8
 26e:	15 c0       	rjmp	.+42     	; 0x29a <vfprintf+0x146>
 270:	28 01       	movw	r4, r16
 272:	f2 e0       	ldi	r31, 0x02	; 2
 274:	4f 0e       	add	r4, r31
 276:	51 1c       	adc	r5, r1
 278:	f8 01       	movw	r30, r16
 27a:	a0 80       	ld	r10, Z
 27c:	b1 80       	ldd	r11, Z+1	; 0x01
 27e:	26 ff       	sbrs	r18, 6
 280:	03 c0       	rjmp	.+6      	; 0x288 <vfprintf+0x134>
 282:	67 2d       	mov	r22, r7
 284:	70 e0       	ldi	r23, 0x00	; 0
 286:	02 c0       	rjmp	.+4      	; 0x28c <vfprintf+0x138>
 288:	6f ef       	ldi	r22, 0xFF	; 255
 28a:	7f ef       	ldi	r23, 0xFF	; 255
 28c:	c5 01       	movw	r24, r10
 28e:	2c 87       	std	Y+12, r18	; 0x0c
 290:	0e 94 92 02 	call	0x524	; 0x524 <strnlen>
 294:	3c 01       	movw	r6, r24
 296:	82 01       	movw	r16, r4
 298:	2c 85       	ldd	r18, Y+12	; 0x0c
 29a:	6f e7       	ldi	r22, 0x7F	; 127
 29c:	26 2e       	mov	r2, r22
 29e:	22 22       	and	r2, r18
 2a0:	18 c0       	rjmp	.+48     	; 0x2d2 <vfprintf+0x17e>
 2a2:	28 01       	movw	r4, r16
 2a4:	f2 e0       	ldi	r31, 0x02	; 2
 2a6:	4f 0e       	add	r4, r31
 2a8:	51 1c       	adc	r5, r1
 2aa:	f8 01       	movw	r30, r16
 2ac:	a0 80       	ld	r10, Z
 2ae:	b1 80       	ldd	r11, Z+1	; 0x01
 2b0:	26 ff       	sbrs	r18, 6
 2b2:	03 c0       	rjmp	.+6      	; 0x2ba <vfprintf+0x166>
 2b4:	67 2d       	mov	r22, r7
 2b6:	70 e0       	ldi	r23, 0x00	; 0
 2b8:	02 c0       	rjmp	.+4      	; 0x2be <vfprintf+0x16a>
 2ba:	6f ef       	ldi	r22, 0xFF	; 255
 2bc:	7f ef       	ldi	r23, 0xFF	; 255
 2be:	c5 01       	movw	r24, r10
 2c0:	2c 87       	std	Y+12, r18	; 0x0c
 2c2:	0e 94 87 02 	call	0x50e	; 0x50e <strnlen_P>
 2c6:	3c 01       	movw	r6, r24
 2c8:	2c 85       	ldd	r18, Y+12	; 0x0c
 2ca:	50 e8       	ldi	r21, 0x80	; 128
 2cc:	25 2e       	mov	r2, r21
 2ce:	22 2a       	or	r2, r18
 2d0:	82 01       	movw	r16, r4
 2d2:	23 fc       	sbrc	r2, 3
 2d4:	1c c0       	rjmp	.+56     	; 0x30e <vfprintf+0x1ba>
 2d6:	06 c0       	rjmp	.+12     	; 0x2e4 <vfprintf+0x190>
 2d8:	b7 01       	movw	r22, r14
 2da:	80 e2       	ldi	r24, 0x20	; 32
 2dc:	90 e0       	ldi	r25, 0x00	; 0
 2de:	0e 94 9d 02 	call	0x53a	; 0x53a <fputc>
 2e2:	3a 94       	dec	r3
 2e4:	83 2d       	mov	r24, r3
 2e6:	90 e0       	ldi	r25, 0x00	; 0
 2e8:	68 16       	cp	r6, r24
 2ea:	79 06       	cpc	r7, r25
 2ec:	a8 f3       	brcs	.-22     	; 0x2d8 <vfprintf+0x184>
 2ee:	0f c0       	rjmp	.+30     	; 0x30e <vfprintf+0x1ba>
 2f0:	f5 01       	movw	r30, r10
 2f2:	27 fc       	sbrc	r2, 7
 2f4:	85 91       	lpm	r24, Z+
 2f6:	27 fe       	sbrs	r2, 7
 2f8:	81 91       	ld	r24, Z+
 2fa:	5f 01       	movw	r10, r30
 2fc:	b7 01       	movw	r22, r14
 2fe:	90 e0       	ldi	r25, 0x00	; 0
 300:	0e 94 9d 02 	call	0x53a	; 0x53a <fputc>
 304:	31 10       	cpse	r3, r1
 306:	3a 94       	dec	r3
 308:	f1 e0       	ldi	r31, 0x01	; 1
 30a:	6f 1a       	sub	r6, r31
 30c:	71 08       	sbc	r7, r1
 30e:	61 14       	cp	r6, r1
 310:	71 04       	cpc	r7, r1
 312:	71 f7       	brne	.-36     	; 0x2f0 <vfprintf+0x19c>
 314:	ee c0       	rjmp	.+476    	; 0x4f2 <vfprintf+0x39e>
 316:	84 36       	cpi	r24, 0x64	; 100
 318:	11 f0       	breq	.+4      	; 0x31e <vfprintf+0x1ca>
 31a:	89 36       	cpi	r24, 0x69	; 105
 31c:	41 f5       	brne	.+80     	; 0x36e <vfprintf+0x21a>
 31e:	f8 01       	movw	r30, r16
 320:	27 ff       	sbrs	r18, 7
 322:	07 c0       	rjmp	.+14     	; 0x332 <vfprintf+0x1de>
 324:	60 81       	ld	r22, Z
 326:	71 81       	ldd	r23, Z+1	; 0x01
 328:	82 81       	ldd	r24, Z+2	; 0x02
 32a:	93 81       	ldd	r25, Z+3	; 0x03
 32c:	0c 5f       	subi	r16, 0xFC	; 252
 32e:	1f 4f       	sbci	r17, 0xFF	; 255
 330:	08 c0       	rjmp	.+16     	; 0x342 <vfprintf+0x1ee>
 332:	60 81       	ld	r22, Z
 334:	71 81       	ldd	r23, Z+1	; 0x01
 336:	88 27       	eor	r24, r24
 338:	77 fd       	sbrc	r23, 7
 33a:	80 95       	com	r24
 33c:	98 2f       	mov	r25, r24
 33e:	0e 5f       	subi	r16, 0xFE	; 254
 340:	1f 4f       	sbci	r17, 0xFF	; 255
 342:	4f e6       	ldi	r20, 0x6F	; 111
 344:	64 2e       	mov	r6, r20
 346:	62 22       	and	r6, r18
 348:	97 ff       	sbrs	r25, 7
 34a:	09 c0       	rjmp	.+18     	; 0x35e <vfprintf+0x20a>
 34c:	90 95       	com	r25
 34e:	80 95       	com	r24
 350:	70 95       	com	r23
 352:	61 95       	neg	r22
 354:	7f 4f       	sbci	r23, 0xFF	; 255
 356:	8f 4f       	sbci	r24, 0xFF	; 255
 358:	9f 4f       	sbci	r25, 0xFF	; 255
 35a:	f0 e8       	ldi	r31, 0x80	; 128
 35c:	6f 2a       	or	r6, r31
 35e:	2a e0       	ldi	r18, 0x0A	; 10
 360:	30 e0       	ldi	r19, 0x00	; 0
 362:	a4 01       	movw	r20, r8
 364:	0e 94 c9 02 	call	0x592	; 0x592 <__ultoa_invert>
 368:	a8 2e       	mov	r10, r24
 36a:	a8 18       	sub	r10, r8
 36c:	44 c0       	rjmp	.+136    	; 0x3f6 <vfprintf+0x2a2>
 36e:	85 37       	cpi	r24, 0x75	; 117
 370:	31 f4       	brne	.+12     	; 0x37e <vfprintf+0x22a>
 372:	3f ee       	ldi	r19, 0xEF	; 239
 374:	b3 2e       	mov	r11, r19
 376:	b2 22       	and	r11, r18
 378:	2a e0       	ldi	r18, 0x0A	; 10
 37a:	30 e0       	ldi	r19, 0x00	; 0
 37c:	24 c0       	rjmp	.+72     	; 0x3c6 <vfprintf+0x272>
 37e:	99 ef       	ldi	r25, 0xF9	; 249
 380:	b9 2e       	mov	r11, r25
 382:	b2 22       	and	r11, r18
 384:	8f 36       	cpi	r24, 0x6F	; 111
 386:	b9 f0       	breq	.+46     	; 0x3b6 <vfprintf+0x262>
 388:	20 f4       	brcc	.+8      	; 0x392 <vfprintf+0x23e>
 38a:	88 35       	cpi	r24, 0x58	; 88
 38c:	09 f0       	breq	.+2      	; 0x390 <vfprintf+0x23c>
 38e:	b4 c0       	rjmp	.+360    	; 0x4f8 <vfprintf+0x3a4>
 390:	0d c0       	rjmp	.+26     	; 0x3ac <vfprintf+0x258>
 392:	80 37       	cpi	r24, 0x70	; 112
 394:	21 f0       	breq	.+8      	; 0x39e <vfprintf+0x24a>
 396:	88 37       	cpi	r24, 0x78	; 120
 398:	09 f0       	breq	.+2      	; 0x39c <vfprintf+0x248>
 39a:	ae c0       	rjmp	.+348    	; 0x4f8 <vfprintf+0x3a4>
 39c:	02 c0       	rjmp	.+4      	; 0x3a2 <vfprintf+0x24e>
 39e:	20 e1       	ldi	r18, 0x10	; 16
 3a0:	b2 2a       	or	r11, r18
 3a2:	b4 fe       	sbrs	r11, 4
 3a4:	0b c0       	rjmp	.+22     	; 0x3bc <vfprintf+0x268>
 3a6:	84 e0       	ldi	r24, 0x04	; 4
 3a8:	b8 2a       	or	r11, r24
 3aa:	08 c0       	rjmp	.+16     	; 0x3bc <vfprintf+0x268>
 3ac:	24 ff       	sbrs	r18, 4
 3ae:	09 c0       	rjmp	.+18     	; 0x3c2 <vfprintf+0x26e>
 3b0:	e6 e0       	ldi	r30, 0x06	; 6
 3b2:	be 2a       	or	r11, r30
 3b4:	06 c0       	rjmp	.+12     	; 0x3c2 <vfprintf+0x26e>
 3b6:	28 e0       	ldi	r18, 0x08	; 8
 3b8:	30 e0       	ldi	r19, 0x00	; 0
 3ba:	05 c0       	rjmp	.+10     	; 0x3c6 <vfprintf+0x272>
 3bc:	20 e1       	ldi	r18, 0x10	; 16
 3be:	30 e0       	ldi	r19, 0x00	; 0
 3c0:	02 c0       	rjmp	.+4      	; 0x3c6 <vfprintf+0x272>
 3c2:	20 e1       	ldi	r18, 0x10	; 16
 3c4:	32 e0       	ldi	r19, 0x02	; 2
 3c6:	f8 01       	movw	r30, r16
 3c8:	b7 fe       	sbrs	r11, 7
 3ca:	07 c0       	rjmp	.+14     	; 0x3da <vfprintf+0x286>
 3cc:	60 81       	ld	r22, Z
 3ce:	71 81       	ldd	r23, Z+1	; 0x01
 3d0:	82 81       	ldd	r24, Z+2	; 0x02
 3d2:	93 81       	ldd	r25, Z+3	; 0x03
 3d4:	0c 5f       	subi	r16, 0xFC	; 252
 3d6:	1f 4f       	sbci	r17, 0xFF	; 255
 3d8:	06 c0       	rjmp	.+12     	; 0x3e6 <vfprintf+0x292>
 3da:	60 81       	ld	r22, Z
 3dc:	71 81       	ldd	r23, Z+1	; 0x01
 3de:	80 e0       	ldi	r24, 0x00	; 0
 3e0:	90 e0       	ldi	r25, 0x00	; 0
 3e2:	0e 5f       	subi	r16, 0xFE	; 254
 3e4:	1f 4f       	sbci	r17, 0xFF	; 255
 3e6:	a4 01       	movw	r20, r8
 3e8:	0e 94 c9 02 	call	0x592	; 0x592 <__ultoa_invert>
 3ec:	a8 2e       	mov	r10, r24
 3ee:	a8 18       	sub	r10, r8
 3f0:	8f e7       	ldi	r24, 0x7F	; 127
 3f2:	68 2e       	mov	r6, r24
 3f4:	6b 20       	and	r6, r11
 3f6:	66 fe       	sbrs	r6, 6
 3f8:	0b c0       	rjmp	.+22     	; 0x410 <vfprintf+0x2bc>
 3fa:	36 2d       	mov	r19, r6
 3fc:	3e 7f       	andi	r19, 0xFE	; 254
 3fe:	a7 14       	cp	r10, r7
 400:	50 f4       	brcc	.+20     	; 0x416 <vfprintf+0x2c2>
 402:	64 fe       	sbrs	r6, 4
 404:	0a c0       	rjmp	.+20     	; 0x41a <vfprintf+0x2c6>
 406:	62 fc       	sbrc	r6, 2
 408:	08 c0       	rjmp	.+16     	; 0x41a <vfprintf+0x2c6>
 40a:	36 2d       	mov	r19, r6
 40c:	3e 7e       	andi	r19, 0xEE	; 238
 40e:	05 c0       	rjmp	.+10     	; 0x41a <vfprintf+0x2c6>
 410:	ba 2c       	mov	r11, r10
 412:	36 2d       	mov	r19, r6
 414:	03 c0       	rjmp	.+6      	; 0x41c <vfprintf+0x2c8>
 416:	ba 2c       	mov	r11, r10
 418:	01 c0       	rjmp	.+2      	; 0x41c <vfprintf+0x2c8>
 41a:	b7 2c       	mov	r11, r7
 41c:	34 ff       	sbrs	r19, 4
 41e:	0d c0       	rjmp	.+26     	; 0x43a <vfprintf+0x2e6>
 420:	fe 01       	movw	r30, r28
 422:	ea 0d       	add	r30, r10
 424:	f1 1d       	adc	r31, r1
 426:	80 81       	ld	r24, Z
 428:	80 33       	cpi	r24, 0x30	; 48
 42a:	11 f4       	brne	.+4      	; 0x430 <vfprintf+0x2dc>
 42c:	39 7e       	andi	r19, 0xE9	; 233
 42e:	09 c0       	rjmp	.+18     	; 0x442 <vfprintf+0x2ee>
 430:	32 ff       	sbrs	r19, 2
 432:	06 c0       	rjmp	.+12     	; 0x440 <vfprintf+0x2ec>
 434:	b3 94       	inc	r11
 436:	b3 94       	inc	r11
 438:	04 c0       	rjmp	.+8      	; 0x442 <vfprintf+0x2ee>
 43a:	83 2f       	mov	r24, r19
 43c:	86 78       	andi	r24, 0x86	; 134
 43e:	09 f0       	breq	.+2      	; 0x442 <vfprintf+0x2ee>
 440:	b3 94       	inc	r11
 442:	33 fd       	sbrc	r19, 3
 444:	14 c0       	rjmp	.+40     	; 0x46e <vfprintf+0x31a>
 446:	30 ff       	sbrs	r19, 0
 448:	0f c0       	rjmp	.+30     	; 0x468 <vfprintf+0x314>
 44a:	7a 2c       	mov	r7, r10
 44c:	b3 14       	cp	r11, r3
 44e:	60 f4       	brcc	.+24     	; 0x468 <vfprintf+0x314>
 450:	73 0c       	add	r7, r3
 452:	7b 18       	sub	r7, r11
 454:	b3 2c       	mov	r11, r3
 456:	08 c0       	rjmp	.+16     	; 0x468 <vfprintf+0x314>
 458:	b7 01       	movw	r22, r14
 45a:	80 e2       	ldi	r24, 0x20	; 32
 45c:	90 e0       	ldi	r25, 0x00	; 0
 45e:	3c 87       	std	Y+12, r19	; 0x0c
 460:	0e 94 9d 02 	call	0x53a	; 0x53a <fputc>
 464:	b3 94       	inc	r11
 466:	3c 85       	ldd	r19, Y+12	; 0x0c
 468:	b3 14       	cp	r11, r3
 46a:	b0 f3       	brcs	.-20     	; 0x458 <vfprintf+0x304>
 46c:	04 c0       	rjmp	.+8      	; 0x476 <vfprintf+0x322>
 46e:	b3 14       	cp	r11, r3
 470:	10 f4       	brcc	.+4      	; 0x476 <vfprintf+0x322>
 472:	3b 18       	sub	r3, r11
 474:	01 c0       	rjmp	.+2      	; 0x478 <vfprintf+0x324>
 476:	31 2c       	mov	r3, r1
 478:	34 ff       	sbrs	r19, 4
 47a:	12 c0       	rjmp	.+36     	; 0x4a0 <vfprintf+0x34c>
 47c:	b7 01       	movw	r22, r14
 47e:	80 e3       	ldi	r24, 0x30	; 48
 480:	90 e0       	ldi	r25, 0x00	; 0
 482:	3c 87       	std	Y+12, r19	; 0x0c
 484:	0e 94 9d 02 	call	0x53a	; 0x53a <fputc>
 488:	3c 85       	ldd	r19, Y+12	; 0x0c
 48a:	32 ff       	sbrs	r19, 2
 48c:	1e c0       	rjmp	.+60     	; 0x4ca <vfprintf+0x376>
 48e:	31 ff       	sbrs	r19, 1
 490:	03 c0       	rjmp	.+6      	; 0x498 <vfprintf+0x344>
 492:	88 e5       	ldi	r24, 0x58	; 88
 494:	90 e0       	ldi	r25, 0x00	; 0
 496:	02 c0       	rjmp	.+4      	; 0x49c <vfprintf+0x348>
 498:	88 e7       	ldi	r24, 0x78	; 120
 49a:	90 e0       	ldi	r25, 0x00	; 0
 49c:	b7 01       	movw	r22, r14
 49e:	0c c0       	rjmp	.+24     	; 0x4b8 <vfprintf+0x364>
 4a0:	83 2f       	mov	r24, r19
 4a2:	86 78       	andi	r24, 0x86	; 134
 4a4:	91 f0       	breq	.+36     	; 0x4ca <vfprintf+0x376>
 4a6:	31 fd       	sbrc	r19, 1
 4a8:	02 c0       	rjmp	.+4      	; 0x4ae <vfprintf+0x35a>
 4aa:	80 e2       	ldi	r24, 0x20	; 32
 4ac:	01 c0       	rjmp	.+2      	; 0x4b0 <vfprintf+0x35c>
 4ae:	8b e2       	ldi	r24, 0x2B	; 43
 4b0:	37 fd       	sbrc	r19, 7
 4b2:	8d e2       	ldi	r24, 0x2D	; 45
 4b4:	b7 01       	movw	r22, r14
 4b6:	90 e0       	ldi	r25, 0x00	; 0
 4b8:	0e 94 9d 02 	call	0x53a	; 0x53a <fputc>
 4bc:	06 c0       	rjmp	.+12     	; 0x4ca <vfprintf+0x376>
 4be:	b7 01       	movw	r22, r14
 4c0:	80 e3       	ldi	r24, 0x30	; 48
 4c2:	90 e0       	ldi	r25, 0x00	; 0
 4c4:	0e 94 9d 02 	call	0x53a	; 0x53a <fputc>
 4c8:	7a 94       	dec	r7
 4ca:	a7 14       	cp	r10, r7
 4cc:	c0 f3       	brcs	.-16     	; 0x4be <vfprintf+0x36a>
 4ce:	aa 94       	dec	r10
 4d0:	f4 01       	movw	r30, r8
 4d2:	ea 0d       	add	r30, r10
 4d4:	f1 1d       	adc	r31, r1
 4d6:	b7 01       	movw	r22, r14
 4d8:	80 81       	ld	r24, Z
 4da:	90 e0       	ldi	r25, 0x00	; 0
 4dc:	0e 94 9d 02 	call	0x53a	; 0x53a <fputc>
 4e0:	a1 10       	cpse	r10, r1
 4e2:	f5 cf       	rjmp	.-22     	; 0x4ce <vfprintf+0x37a>
 4e4:	06 c0       	rjmp	.+12     	; 0x4f2 <vfprintf+0x39e>
 4e6:	b7 01       	movw	r22, r14
 4e8:	80 e2       	ldi	r24, 0x20	; 32
 4ea:	90 e0       	ldi	r25, 0x00	; 0
 4ec:	0e 94 9d 02 	call	0x53a	; 0x53a <fputc>
 4f0:	3a 94       	dec	r3
 4f2:	31 10       	cpse	r3, r1
 4f4:	f8 cf       	rjmp	.-16     	; 0x4e6 <vfprintf+0x392>
 4f6:	42 ce       	rjmp	.-892    	; 0x17c <vfprintf+0x28>
 4f8:	f7 01       	movw	r30, r14
 4fa:	26 81       	ldd	r18, Z+6	; 0x06
 4fc:	37 81       	ldd	r19, Z+7	; 0x07
 4fe:	02 c0       	rjmp	.+4      	; 0x504 <vfprintf+0x3b0>
 500:	2f ef       	ldi	r18, 0xFF	; 255
 502:	3f ef       	ldi	r19, 0xFF	; 255
 504:	c9 01       	movw	r24, r18
 506:	2c 96       	adiw	r28, 0x0c	; 12
 508:	e2 e1       	ldi	r30, 0x12	; 18
 50a:	0c 94 43 03 	jmp	0x686	; 0x686 <__epilogue_restores__>

0000050e <strnlen_P>:
 50e:	fc 01       	movw	r30, r24
 510:	05 90       	lpm	r0, Z+
 512:	61 50       	subi	r22, 0x01	; 1
 514:	70 40       	sbci	r23, 0x00	; 0
 516:	01 10       	cpse	r0, r1
 518:	d8 f7       	brcc	.-10     	; 0x510 <strnlen_P+0x2>
 51a:	80 95       	com	r24
 51c:	90 95       	com	r25
 51e:	8e 0f       	add	r24, r30
 520:	9f 1f       	adc	r25, r31
 522:	08 95       	ret

00000524 <strnlen>:
 524:	fc 01       	movw	r30, r24
 526:	61 50       	subi	r22, 0x01	; 1
 528:	70 40       	sbci	r23, 0x00	; 0
 52a:	01 90       	ld	r0, Z+
 52c:	01 10       	cpse	r0, r1
 52e:	d8 f7       	brcc	.-10     	; 0x526 <strnlen+0x2>
 530:	80 95       	com	r24
 532:	90 95       	com	r25
 534:	8e 0f       	add	r24, r30
 536:	9f 1f       	adc	r25, r31
 538:	08 95       	ret

0000053a <fputc>:
 53a:	0f 93       	push	r16
 53c:	1f 93       	push	r17
 53e:	cf 93       	push	r28
 540:	df 93       	push	r29
 542:	8c 01       	movw	r16, r24
 544:	eb 01       	movw	r28, r22
 546:	8b 81       	ldd	r24, Y+3	; 0x03
 548:	81 fd       	sbrc	r24, 1
 54a:	03 c0       	rjmp	.+6      	; 0x552 <fputc+0x18>
 54c:	0f ef       	ldi	r16, 0xFF	; 255
 54e:	1f ef       	ldi	r17, 0xFF	; 255
 550:	1a c0       	rjmp	.+52     	; 0x586 <fputc+0x4c>
 552:	82 ff       	sbrs	r24, 2
 554:	0d c0       	rjmp	.+26     	; 0x570 <fputc+0x36>
 556:	2e 81       	ldd	r18, Y+6	; 0x06
 558:	3f 81       	ldd	r19, Y+7	; 0x07
 55a:	8c 81       	ldd	r24, Y+4	; 0x04
 55c:	9d 81       	ldd	r25, Y+5	; 0x05
 55e:	28 17       	cp	r18, r24
 560:	39 07       	cpc	r19, r25
 562:	64 f4       	brge	.+24     	; 0x57c <fputc+0x42>
 564:	e8 81       	ld	r30, Y
 566:	f9 81       	ldd	r31, Y+1	; 0x01
 568:	01 93       	st	Z+, r16
 56a:	f9 83       	std	Y+1, r31	; 0x01
 56c:	e8 83       	st	Y, r30
 56e:	06 c0       	rjmp	.+12     	; 0x57c <fputc+0x42>
 570:	e8 85       	ldd	r30, Y+8	; 0x08
 572:	f9 85       	ldd	r31, Y+9	; 0x09
 574:	80 2f       	mov	r24, r16
 576:	09 95       	icall
 578:	89 2b       	or	r24, r25
 57a:	41 f7       	brne	.-48     	; 0x54c <fputc+0x12>
 57c:	8e 81       	ldd	r24, Y+6	; 0x06
 57e:	9f 81       	ldd	r25, Y+7	; 0x07
 580:	01 96       	adiw	r24, 0x01	; 1
 582:	9f 83       	std	Y+7, r25	; 0x07
 584:	8e 83       	std	Y+6, r24	; 0x06
 586:	c8 01       	movw	r24, r16
 588:	df 91       	pop	r29
 58a:	cf 91       	pop	r28
 58c:	1f 91       	pop	r17
 58e:	0f 91       	pop	r16
 590:	08 95       	ret

00000592 <__ultoa_invert>:
 592:	fa 01       	movw	r30, r20
 594:	aa 27       	eor	r26, r26
 596:	28 30       	cpi	r18, 0x08	; 8
 598:	51 f1       	breq	.+84     	; 0x5ee <__ultoa_invert+0x5c>
 59a:	20 31       	cpi	r18, 0x10	; 16
 59c:	81 f1       	breq	.+96     	; 0x5fe <__ultoa_invert+0x6c>
 59e:	e8 94       	clt
 5a0:	6f 93       	push	r22
 5a2:	6e 7f       	andi	r22, 0xFE	; 254
 5a4:	6e 5f       	subi	r22, 0xFE	; 254
 5a6:	7f 4f       	sbci	r23, 0xFF	; 255
 5a8:	8f 4f       	sbci	r24, 0xFF	; 255
 5aa:	9f 4f       	sbci	r25, 0xFF	; 255
 5ac:	af 4f       	sbci	r26, 0xFF	; 255
 5ae:	b1 e0       	ldi	r27, 0x01	; 1
 5b0:	3e d0       	rcall	.+124    	; 0x62e <__ultoa_invert+0x9c>
 5b2:	b4 e0       	ldi	r27, 0x04	; 4
 5b4:	3c d0       	rcall	.+120    	; 0x62e <__ultoa_invert+0x9c>
 5b6:	67 0f       	add	r22, r23
 5b8:	78 1f       	adc	r23, r24
 5ba:	89 1f       	adc	r24, r25
 5bc:	9a 1f       	adc	r25, r26
 5be:	a1 1d       	adc	r26, r1
 5c0:	68 0f       	add	r22, r24
 5c2:	79 1f       	adc	r23, r25
 5c4:	8a 1f       	adc	r24, r26
 5c6:	91 1d       	adc	r25, r1
 5c8:	a1 1d       	adc	r26, r1
 5ca:	6a 0f       	add	r22, r26
 5cc:	71 1d       	adc	r23, r1
 5ce:	81 1d       	adc	r24, r1
 5d0:	91 1d       	adc	r25, r1
 5d2:	a1 1d       	adc	r26, r1
 5d4:	20 d0       	rcall	.+64     	; 0x616 <__ultoa_invert+0x84>
 5d6:	09 f4       	brne	.+2      	; 0x5da <__ultoa_invert+0x48>
 5d8:	68 94       	set
 5da:	3f 91       	pop	r19
 5dc:	2a e0       	ldi	r18, 0x0A	; 10
 5de:	26 9f       	mul	r18, r22
 5e0:	11 24       	eor	r1, r1
 5e2:	30 19       	sub	r19, r0
 5e4:	30 5d       	subi	r19, 0xD0	; 208
 5e6:	31 93       	st	Z+, r19
 5e8:	de f6       	brtc	.-74     	; 0x5a0 <__ultoa_invert+0xe>
 5ea:	cf 01       	movw	r24, r30
 5ec:	08 95       	ret
 5ee:	46 2f       	mov	r20, r22
 5f0:	47 70       	andi	r20, 0x07	; 7
 5f2:	40 5d       	subi	r20, 0xD0	; 208
 5f4:	41 93       	st	Z+, r20
 5f6:	b3 e0       	ldi	r27, 0x03	; 3
 5f8:	0f d0       	rcall	.+30     	; 0x618 <__ultoa_invert+0x86>
 5fa:	c9 f7       	brne	.-14     	; 0x5ee <__ultoa_invert+0x5c>
 5fc:	f6 cf       	rjmp	.-20     	; 0x5ea <__ultoa_invert+0x58>
 5fe:	46 2f       	mov	r20, r22
 600:	4f 70       	andi	r20, 0x0F	; 15
 602:	40 5d       	subi	r20, 0xD0	; 208
 604:	4a 33       	cpi	r20, 0x3A	; 58
 606:	18 f0       	brcs	.+6      	; 0x60e <__ultoa_invert+0x7c>
 608:	49 5d       	subi	r20, 0xD9	; 217
 60a:	31 fd       	sbrc	r19, 1
 60c:	40 52       	subi	r20, 0x20	; 32
 60e:	41 93       	st	Z+, r20
 610:	02 d0       	rcall	.+4      	; 0x616 <__ultoa_invert+0x84>
 612:	a9 f7       	brne	.-22     	; 0x5fe <__ultoa_invert+0x6c>
 614:	ea cf       	rjmp	.-44     	; 0x5ea <__ultoa_invert+0x58>
 616:	b4 e0       	ldi	r27, 0x04	; 4
 618:	a6 95       	lsr	r26
 61a:	97 95       	ror	r25
 61c:	87 95       	ror	r24
 61e:	77 95       	ror	r23
 620:	67 95       	ror	r22
 622:	ba 95       	dec	r27
 624:	c9 f7       	brne	.-14     	; 0x618 <__ultoa_invert+0x86>
 626:	00 97       	sbiw	r24, 0x00	; 0
 628:	61 05       	cpc	r22, r1
 62a:	71 05       	cpc	r23, r1
 62c:	08 95       	ret
 62e:	9b 01       	movw	r18, r22
 630:	ac 01       	movw	r20, r24
 632:	0a 2e       	mov	r0, r26
 634:	06 94       	lsr	r0
 636:	57 95       	ror	r21
 638:	47 95       	ror	r20
 63a:	37 95       	ror	r19
 63c:	27 95       	ror	r18
 63e:	ba 95       	dec	r27
 640:	c9 f7       	brne	.-14     	; 0x634 <__ultoa_invert+0xa2>
 642:	62 0f       	add	r22, r18
 644:	73 1f       	adc	r23, r19
 646:	84 1f       	adc	r24, r20
 648:	95 1f       	adc	r25, r21
 64a:	a0 1d       	adc	r26, r0
 64c:	08 95       	ret

0000064e <__prologue_saves__>:
 64e:	2f 92       	push	r2
 650:	3f 92       	push	r3
 652:	4f 92       	push	r4
 654:	5f 92       	push	r5
 656:	6f 92       	push	r6
 658:	7f 92       	push	r7
 65a:	8f 92       	push	r8
 65c:	9f 92       	push	r9
 65e:	af 92       	push	r10
 660:	bf 92       	push	r11
 662:	cf 92       	push	r12
 664:	df 92       	push	r13
 666:	ef 92       	push	r14
 668:	ff 92       	push	r15
 66a:	0f 93       	push	r16
 66c:	1f 93       	push	r17
 66e:	cf 93       	push	r28
 670:	df 93       	push	r29
 672:	cd b7       	in	r28, 0x3d	; 61
 674:	de b7       	in	r29, 0x3e	; 62
 676:	ca 1b       	sub	r28, r26
 678:	db 0b       	sbc	r29, r27
 67a:	0f b6       	in	r0, 0x3f	; 63
 67c:	f8 94       	cli
 67e:	de bf       	out	0x3e, r29	; 62
 680:	0f be       	out	0x3f, r0	; 63
 682:	cd bf       	out	0x3d, r28	; 61
 684:	09 94       	ijmp

00000686 <__epilogue_restores__>:
 686:	2a 88       	ldd	r2, Y+18	; 0x12
 688:	39 88       	ldd	r3, Y+17	; 0x11
 68a:	48 88       	ldd	r4, Y+16	; 0x10
 68c:	5f 84       	ldd	r5, Y+15	; 0x0f
 68e:	6e 84       	ldd	r6, Y+14	; 0x0e
 690:	7d 84       	ldd	r7, Y+13	; 0x0d
 692:	8c 84       	ldd	r8, Y+12	; 0x0c
 694:	9b 84       	ldd	r9, Y+11	; 0x0b
 696:	aa 84       	ldd	r10, Y+10	; 0x0a
 698:	b9 84       	ldd	r11, Y+9	; 0x09
 69a:	c8 84       	ldd	r12, Y+8	; 0x08
 69c:	df 80       	ldd	r13, Y+7	; 0x07
 69e:	ee 80       	ldd	r14, Y+6	; 0x06
 6a0:	fd 80       	ldd	r15, Y+5	; 0x05
 6a2:	0c 81       	ldd	r16, Y+4	; 0x04
 6a4:	1b 81       	ldd	r17, Y+3	; 0x03
 6a6:	aa 81       	ldd	r26, Y+2	; 0x02
 6a8:	b9 81       	ldd	r27, Y+1	; 0x01
 6aa:	ce 0f       	add	r28, r30
 6ac:	d1 1d       	adc	r29, r1
 6ae:	0f b6       	in	r0, 0x3f	; 63
 6b0:	f8 94       	cli
 6b2:	de bf       	out	0x3e, r29	; 62
 6b4:	0f be       	out	0x3f, r0	; 63
 6b6:	cd bf       	out	0x3d, r28	; 61
 6b8:	ed 01       	movw	r28, r26
 6ba:	08 95       	ret

000006bc <_exit>:
 6bc:	f8 94       	cli

000006be <__stop_program>:
 6be:	ff cf       	rjmp	.-2      	; 0x6be <__stop_program>
